EXPORTS
    _ZN5creek10DynLibrary13find_dyn_funcERKNSt7__cxx1112basic_stringIcSt11char_traitsIcESaIcEEE @1
    _ZN5creek10DynLibrary16find_symbol_baseERKNSt7__cxx1112basic_stringIcSt11char_traitsIcESaIcEEE @2
    _ZN5creek10DynLibraryC1ERKNSt7__cxx1112basic_stringIcSt11char_traitsIcESaIcEEE @3
    _ZN5creek10DynLibraryC2ERKNSt7__cxx1112basic_stringIcSt11char_traitsIcESaIcEEE @4
    _ZN5creek10DynLibraryD1Ev @5
    _ZN5creek10DynLibraryD2Ev @6
    _ZN5creek10ExprBinaryILNS_6OpCodeE16EXadL_ZNS_4Data3addEPS2_EEE4evalERNS_5ScopeE @7
    _ZN5creek10ExprBinaryILNS_6OpCodeE16EXadL_ZNS_4Data3addEPS2_EEEC1EPNS_10ExpressionES6_ @8
    _ZN5creek10ExprBinaryILNS_6OpCodeE17EXadL_ZNS_4Data3subEPS2_EEE4evalERNS_5ScopeE @9
    _ZN5creek10ExprBinaryILNS_6OpCodeE17EXadL_ZNS_4Data3subEPS2_EEEC1EPNS_10ExpressionES6_ @10
    _ZN5creek10ExprBinaryILNS_6OpCodeE18EXadL_ZNS_4Data3mulEPS2_EEE4evalERNS_5ScopeE @11
    _ZN5creek10ExprBinaryILNS_6OpCodeE18EXadL_ZNS_4Data3mulEPS2_EEEC1EPNS_10ExpressionES6_ @12
    _ZN5creek10ExprBinaryILNS_6OpCodeE19EXadL_ZNS_4Data3divEPS2_EEE4evalERNS_5ScopeE @13
    _ZN5creek10ExprBinaryILNS_6OpCodeE19EXadL_ZNS_4Data3divEPS2_EEEC1EPNS_10ExpressionES6_ @14
    _ZN5creek10ExprBinaryILNS_6OpCodeE20EXadL_ZNS_4Data3modEPS2_EEE4evalERNS_5ScopeE @15
    _ZN5creek10ExprBinaryILNS_6OpCodeE20EXadL_ZNS_4Data3modEPS2_EEEC1EPNS_10ExpressionES6_ @16
    _ZN5creek10ExprBinaryILNS_6OpCodeE21EXadL_ZNS_4Data3expEPS2_EEE4evalERNS_5ScopeE @17
    _ZN5creek10ExprBinaryILNS_6OpCodeE21EXadL_ZNS_4Data3expEPS2_EEEC1EPNS_10ExpressionES6_ @18
    _ZN5creek10ExprBinaryILNS_6OpCodeE23EXadL_ZNS_4Data7bit_andEPS2_EEE4evalERNS_5ScopeE @19
    _ZN5creek10ExprBinaryILNS_6OpCodeE23EXadL_ZNS_4Data7bit_andEPS2_EEEC1EPNS_10ExpressionES6_ @20
    _ZN5creek10ExprBinaryILNS_6OpCodeE24EXadL_ZNS_4Data6bit_orEPS2_EEE4evalERNS_5ScopeE @21
    _ZN5creek10ExprBinaryILNS_6OpCodeE24EXadL_ZNS_4Data6bit_orEPS2_EEEC1EPNS_10ExpressionES6_ @22
    _ZN5creek10ExprBinaryILNS_6OpCodeE25EXadL_ZNS_4Data7bit_xorEPS2_EEE4evalERNS_5ScopeE @23
    _ZN5creek10ExprBinaryILNS_6OpCodeE25EXadL_ZNS_4Data7bit_xorEPS2_EEEC1EPNS_10ExpressionES6_ @24
    _ZN5creek10ExprBinaryILNS_6OpCodeE27EXadL_ZNS_4Data14bit_left_shiftEPS2_EEE4evalERNS_5ScopeE @25
    _ZN5creek10ExprBinaryILNS_6OpCodeE27EXadL_ZNS_4Data14bit_left_shiftEPS2_EEEC1EPNS_10ExpressionES6_ @26
    _ZN5creek10ExprBinaryILNS_6OpCodeE28EXadL_ZNS_4Data15bit_right_shiftEPS2_EEE4evalERNS_5ScopeE @27
    _ZN5creek10ExprBinaryILNS_6OpCodeE28EXadL_ZNS_4Data15bit_right_shiftEPS2_EEEC1EPNS_10ExpressionES6_ @28
    _ZN5creek10ExprBoolOr4evalERNS_5ScopeE @29
    _ZN5creek10ExprBoolOrC1EPNS_10ExpressionES2_ @30
    _ZN5creek10ExprBoolOrC2EPNS_10ExpressionES2_ @31
    _ZN5creek10ExprNumber4evalERNS_5ScopeE @32
    _ZN5creek10ExprNumberC1Ef @33
    _ZN5creek10ExprNumberC2Ef @34
    _ZN5creek10ExprReturn4evalERNS_5ScopeE @35
    _ZN5creek10ExprReturnC1EPNS_10ExpressionE @36
    _ZN5creek10ExprReturnC2EPNS_10ExpressionE @37
    _ZN5creek10ExprString4evalERNS_5ScopeE @38
    _ZN5creek10ExprStringC1ENSt7__cxx1112basic_stringIcSt11char_traitsIcESaIcEEE @39
    _ZN5creek10ExprStringC2ENSt7__cxx1112basic_stringIcSt11char_traitsIcESaIcEEE @40
    _ZN5creek10ExprSwitch4evalERNS_5ScopeE @41
    _ZN5creek10ExprSwitchC1EPNS_10ExpressionERSt6vectorINS0_10CaseBranchESaIS4_EES2_ @42
    _ZN5creek10ExprSwitchC2EPNS_10ExpressionERSt6vectorINS0_10CaseBranchESaIS4_EES2_ @43
    _ZN5creek10ExprVector4evalERNS_5ScopeE @44
    _ZN5creek10ExprVectorC1ESt6vectorIPNS_10ExpressionESaIS3_EE @45
    _ZN5creek10ExprVectorC2ESt6vectorIPNS_10ExpressionESaIS3_EE @46
    _ZN5creek10Identifier3cmpEPNS_4DataE @47
    _ZN5creek10Identifier9get_classEv @48
    _ZN5creek10IdentifierC1ENS_7VarNameE @49
    _ZN5creek10IdentifierC2ENS_7VarNameE @50
    _ZN5creek10LexicErrorC1Eii @51
    _ZN5creek10LexicErrorC2Eii @52
    _ZN5creek10VarNameMap12id_from_nameERKNSt7__cxx1112basic_stringIcSt11char_traitsIcESaIcEEE @53
    _ZN5creek10VarNameMap13register_nameEyRKNSt7__cxx1112basic_stringIcSt11char_traitsIcESaIcEEE @54
    _ZN5creek10VarNameMap3mapB5cxx11Ev @55
    _ZN5creek11BadArgumentC1EPKNS_10ExpressionERKNSt7__cxx1112basic_stringIcSt11char_traitsIcESaIcEEE @56
    _ZN5creek11BadArgumentC2EPKNS_10ExpressionERKNSt7__cxx1112basic_stringIcSt11char_traitsIcESaIcEEE @57
    _ZN5creek11ExprBoolAnd4evalERNS_5ScopeE @58
    _ZN5creek11ExprBoolAndC1EPNS_10ExpressionES2_ @59
    _ZN5creek11ExprBoolAndC2EPNS_10ExpressionES2_ @60
    _ZN5creek11ExprBoolNot4evalERNS_5ScopeE @61
    _ZN5creek11ExprBoolNotC1EPNS_10ExpressionE @62
    _ZN5creek11ExprBoolNotC2EPNS_10ExpressionE @63
    _ZN5creek11ExprBoolXor4evalERNS_5ScopeE @64
    _ZN5creek11ExprBoolXorC1EPNS_10ExpressionES2_ @65
    _ZN5creek11ExprBoolXorC2EPNS_10ExpressionES2_ @66
    _ZN5creek11ExprBoolean4evalERNS_5ScopeE @67
    _ZN5creek11ExprBooleanC1Eb @68
    _ZN5creek11ExprBooleanC2Eb @69
    _ZN5creek11ExprDynFunc4evalERNS_5ScopeE @70
    _ZN5creek11ExprDynFuncC1ERKSt6vectorINS_7VarNameESaIS2_EEbRKNSt7__cxx1112basic_stringIcSt11char_traitsIcESaIcEEESE_ @71
    _ZN5creek11ExprDynFuncC2ERKSt6vectorINS_7VarNameESaIS2_EEbRKNSt7__cxx1112basic_stringIcSt11char_traitsIcESaIcEEESE_ @72
    _ZN5creek11GlobalScope10class_DataE @73 DATA
    _ZN5creek11GlobalScope10class_NullE @74 DATA
    _ZN5creek11GlobalScope10class_VoidE @75 DATA
    _ZN5creek11GlobalScope11class_ClassE @76 DATA
    _ZN5creek11GlobalScope12class_NumberE @77 DATA
    _ZN5creek11GlobalScope12class_ObjectE @78 DATA
    _ZN5creek11GlobalScope12class_StringE @79 DATA
    _ZN5creek11GlobalScope12class_VectorE @80 DATA
    _ZN5creek11GlobalScope13class_BooleanE @81 DATA
    _ZN5creek11GlobalScope16class_IdentifierE @82 DATA
    _ZN5creek11GlobalScope8instanceE @83 DATA
    _ZN5creek11GlobalScopeC1Ev @84
    _ZN5creek11GlobalScopeC2Ev @85
    _ZN5creek11Interpreter11parse_classERNS0_13ParseIteratorE @86
    _ZN5creek11Interpreter12is_operationERNS0_13ParseIteratorE @87
    _ZN5creek11Interpreter13check_not_eofERNS0_13ParseIteratorE @88
    _ZN5creek11Interpreter13token_regexesB5cxx11E @89 DATA
    _ZN5creek11Interpreter14parse_do_blockERNS0_13ParseIteratorE @90
    _ZN5creek11Interpreter14parse_functionERNS0_13ParseIteratorE @91
    _ZN5creek11Interpreter14parse_if_blockERNS0_13ParseIteratorE @92
    _ZN5creek11Interpreter15parse_for_blockERNS0_13ParseIteratorE @93
    _ZN5creek11Interpreter15parse_operationERNS0_13ParseIteratorE @94
    _ZN5creek11Interpreter15parse_parameterERNS0_13ParseIteratorE @95
    _ZN5creek11Interpreter15parse_statementERNS0_13ParseIteratorE @96
    _ZN5creek11Interpreter15parse_try_blockERNS0_13ParseIteratorE @97
    _ZN5creek11Interpreter16check_token_typeERNS0_13ParseIteratorERKSt3setINS_9TokenTypeESt4lessIS4_ESaIS4_EE @98
    _ZN5creek11Interpreter16parse_block_bodyERNS0_13ParseIteratorE @99
    _ZN5creek11Interpreter16parse_loop_blockERNS0_13ParseIteratorE @100
    _ZN5creek11Interpreter17parse_while_blockERNS0_13ParseIteratorE @101
    _ZN5creek11Interpreter18parse_switch_blockERNS0_13ParseIteratorE @102
    _ZN5creek11Interpreter4loadERKNSt7__cxx1112basic_stringIcSt11char_traitsIcESaIcEEE @103
    _ZN5creek11Interpreter4scanERKNSt7__cxx1112basic_stringIcSt11char_traitsIcESaIcEEE @104
    _ZN5creek11Interpreter5parseERKSt6vectorINS_5TokenESaIS2_EE @105
    _ZN5creek11Interpreter8keywordsB5cxx11E @106 DATA
    _ZN5creek11Interpreter9load_codeERKNSt7__cxx1112basic_stringIcSt11char_traitsIcESaIcEEE @107
    _ZN5creek11Interpreter9load_fileERKNSt7__cxx1112basic_stringIcSt11char_traitsIcESaIcEEE @108
    _ZN5creek11Interpreter9operatorsE @109 DATA
    _ZN5creek11Interpreter9parse_varERNS0_13ParseIteratorE @110
    _ZN5creek11InterpreterC1Ev @111
    _ZN5creek11InterpreterC2Ev @112
    _ZN5creek11SyntaxErrorC1ERKNS_5TokenE @113
    _ZN5creek11SyntaxErrorC1ERKNS_5TokenERKNSt7__cxx1112basic_stringIcSt11char_traitsIcESaIcEEE @114
    _ZN5creek11SyntaxErrorC2ERKNS_5TokenE @115
    _ZN5creek11SyntaxErrorC2ERKNS_5TokenERKNSt7__cxx1112basic_stringIcSt11char_traitsIcESaIcEEE @116
    _ZN5creek11escape_charB5cxx11Ec @117
    _ZN5creek12DynCFunctionC1ERKSt10shared_ptrINS_10DynLibraryEERKS1_INS_9CFunction10DefinitionEE @118
    _ZN5creek12DynCFunctionC1ERNS_5ScopeERKSt6vectorINS_7VarNameESaIS4_EEbRKNSt7__cxx1112basic_stringIcSt11char_traitsIcESaIcEEESG_ @119
    _ZN5creek12DynCFunctionC1ERNS_5ScopeERKSt6vectorINS_7VarNameESaIS4_EEbRKSt10shared_ptrINS_10DynLibraryEERKNS_7DynFuncE @120
    _ZN5creek12DynCFunctionC1ERNS_5ScopeERKSt6vectorINS_7VarNameESaIS4_EEbRKSt10shared_ptrINS_10DynLibraryEERKNSt7__cxx1112basic_stringIcSt11char_traitsIcESaIcEEE @121
    _ZN5creek12DynCFunctionC2ERKSt10shared_ptrINS_10DynLibraryEERKS1_INS_9CFunction10DefinitionEE @122
    _ZN5creek12DynCFunctionC2ERNS_5ScopeERKSt6vectorINS_7VarNameESaIS4_EEbRKNSt7__cxx1112basic_stringIcSt11char_traitsIcESaIcEEESG_ @123
    _ZN5creek12DynCFunctionC2ERNS_5ScopeERKSt6vectorINS_7VarNameESaIS4_EEbRKSt10shared_ptrINS_10DynLibraryEERKNS_7DynFuncE @124
    _ZN5creek12DynCFunctionC2ERNS_5ScopeERKSt6vectorINS_7VarNameESaIS4_EEbRKSt10shared_ptrINS_10DynLibraryEERKNSt7__cxx1112basic_stringIcSt11char_traitsIcESaIcEEE @125
    _ZN5creek12ExprFunction4evalERNS_5ScopeE @126
    _ZN5creek12ExprFunctionC1ERKSt6vectorINS_7VarNameESaIS2_EEbPNS_10ExpressionE @127
    _ZN5creek12ExprFunctionC1ERKSt6vectorINS_7VarNameESaIS2_EEbSt10shared_ptrINS_10ExpressionEE @128
    _ZN5creek12ExprFunctionC2ERKSt6vectorINS_7VarNameESaIS2_EEbPNS_10ExpressionE @129
    _ZN5creek12ExprFunctionC2ERKSt6vectorINS_7VarNameESaIS2_EEbSt10shared_ptrINS_10ExpressionEE @130
    _ZN5creek12ExprIndexGet4evalERNS_5ScopeE @131
    _ZN5creek12ExprIndexGetC1EPNS_10ExpressionES2_ @132
    _ZN5creek12ExprIndexGetC2EPNS_10ExpressionES2_ @133
    _ZN5creek12ExprIndexSet4evalERNS_5ScopeE @134
    _ZN5creek12ExprIndexSetC1EPNS_10ExpressionES2_S2_ @135
    _ZN5creek12ExprIndexSetC2EPNS_10ExpressionES2_S2_ @136
    _ZN5creek12RuntimeErrorC1EPKNS_10ExpressionE @137
    _ZN5creek12RuntimeErrorC2EPKNS_10ExpressionE @138
    _ZN5creek12clear_screenEv @139
    _ZN5creek13ExprLoadLocal4evalERNS_5ScopeE @140
    _ZN5creek13ExprLoadLocalC1ENS_7VarNameE @141
    _ZN5creek13ExprLoadLocalC2ENS_7VarNameE @142
    _ZN5creek13UnexpectedEofC1ERKNS_5TokenE @143
    _ZN5creek13UnexpectedEofC2ERKNS_5TokenE @144
    _ZN5creek13UnimplementedC1ERKNSt7__cxx1112basic_stringIcSt11char_traitsIcESaIcEEE @145
    _ZN5creek13UnimplementedC2ERKNSt7__cxx1112basic_stringIcSt11char_traitsIcESaIcEEE @146
    _ZN5creek13escape_stringERKNSt7__cxx1112basic_stringIcSt11char_traitsIcESaIcEEE @147
    _ZN5creek13unescape_charERKNSt7__cxx1112basic_stringIcSt11char_traitsIcESaIcEEEjPj @148
    _ZN5creek14AmbiguousTokenC1ERKNS_5TokenERKSt6vectorINS_9TokenTypeESaIS5_EE @149
    _ZN5creek14AmbiguousTokenC2ERKNS_5TokenERKSt6vectorINS_9TokenTypeESaIS5_EE @150
    _ZN5creek14ExprBasicBlock4evalERNS_5ScopeE @151
    _ZN5creek14ExprBasicBlockC1ERKSt6vectorIPNS_10ExpressionESaIS3_EE @152
    _ZN5creek14ExprBasicBlockC2ERKSt6vectorIPNS_10ExpressionESaIS3_EE @153
    _ZN5creek14ExprCallMethod4evalERNS_5ScopeE @154
    _ZN5creek14ExprCallMethodC1EPNS_10ExpressionES2_RKSt6vectorIS2_SaIS2_EE @155
    _ZN5creek14ExprCallMethodC2EPNS_10ExpressionES2_RKSt6vectorIS2_SaIS2_EE @156
    _ZN5creek14ExprIdentifier4evalERNS_5ScopeE @157
    _ZN5creek14ExprIdentifierC1ENS_7VarNameE @158
    _ZN5creek14ExprIdentifierC2ENS_7VarNameE @159
    _ZN5creek14ExprLoadGlobal4evalERNS_5ScopeE @160
    _ZN5creek14ExprLoadGlobalC1ENS_7VarNameE @161
    _ZN5creek14ExprLoadGlobalC2ENS_7VarNameE @162
    _ZN5creek14ExprStoreLocal4evalERNS_5ScopeE @163
    _ZN5creek14ExprStoreLocalC1ENS_7VarNameEPNS_10ExpressionE @164
    _ZN5creek14ExprStoreLocalC2ENS_7VarNameEPNS_10ExpressionE @165
    _ZN5creek14WrongArgNumberC1Eii @166
    _ZN5creek14WrongArgNumberC2Eii @167
    _ZN5creek15BadNumberFormatC1Eii @168
    _ZN5creek15BadNumberFormatC2Eii @169
    _ZN5creek15DynLibraryErrorC1ERKNSt7__cxx1112basic_stringIcSt11char_traitsIcESaIcEEE @170
    _ZN5creek15DynLibraryErrorC2ERKNSt7__cxx1112basic_stringIcSt11char_traitsIcESaIcEEE @171
    _ZN5creek15ExprCreateLocal4evalERNS_5ScopeE @172
    _ZN5creek15ExprCreateLocalC1ENS_7VarNameEPNS_10ExpressionE @173
    _ZN5creek15ExprCreateLocalC2ENS_7VarNameEPNS_10ExpressionE @174
    _ZN5creek15ExprStoreGlobal4evalERNS_5ScopeE @175
    _ZN5creek15ExprStoreGlobalC1ENS_7VarNameEPNS_10ExpressionE @176
    _ZN5creek15ExprStoreGlobalC2ENS_7VarNameEPNS_10ExpressionE @177
    _ZN5creek15UnexpectedTokenC1ERKNS_5TokenE @178
    _ZN5creek15UnexpectedTokenC1ERKNS_5TokenERKSt3setINS_9TokenTypeESt4lessIS5_ESaIS5_EE @179
    _ZN5creek15UnexpectedTokenC2ERKNS_5TokenE @180
    _ZN5creek15UnexpectedTokenC2ERKNS_5TokenERKSt3setINS_9TokenTypeESt4lessIS5_ESaIS5_EE @181
    _ZN5creek15unescape_stringERKNSt7__cxx1112basic_stringIcSt11char_traitsIcESaIcEEE @182
    _ZN5creek16ExprCreateGlobal4evalERNS_5ScopeE @183
    _ZN5creek16ExprCreateGlobalC1ENS_7VarNameEPNS_10ExpressionE @184
    _ZN5creek16ExprCreateGlobalC2ENS_7VarNameEPNS_10ExpressionE @185
    _ZN5creek16ExprVariadicCall4evalERNS_5ScopeE @186
    _ZN5creek16ExprVariadicCallC1EPNS_10ExpressionERKSt6vectorIS2_SaIS2_EES2_ @187
    _ZN5creek16ExprVariadicCallC2EPNS_10ExpressionERKSt6vectorIS2_SaIS2_EES2_ @188
    _ZN5creek17DynSymbolNotFoundC1ERKNSt7__cxx1112basic_stringIcSt11char_traitsIcESaIcEEE @189
    _ZN5creek17DynSymbolNotFoundC2ERKNSt7__cxx1112basic_stringIcSt11char_traitsIcESaIcEEE @190
    _ZN5creek18BadCharacterEscapeC1ERKNSt7__cxx1112basic_stringIcSt11char_traitsIcESaIcEEEj @191
    _ZN5creek18BadCharacterEscapeC2ERKNSt7__cxx1112basic_stringIcSt11char_traitsIcESaIcEEEj @192
    _ZN5creek19BytecodeInterpreter12magic_numberB5cxx11E @193 DATA
    _ZN5creek19BytecodeInterpreter13load_bytecodeERNS_8BytecodeE @194
    _ZN5creek19BytecodeInterpreter14parse_var_nameERNS_8BytecodeERKNS_10VarNameMapE @195
    _ZN5creek19BytecodeInterpreter16parse_expressionERNS_8BytecodeERKNS_10VarNameMapE @196
    _ZN5creek19BytecodeInterpreter4loadERKNSt7__cxx1112basic_stringIcSt11char_traitsIcESaIcEEE @197
    _ZN5creek19BytecodeInterpreter5parseERNS_8BytecodeE @198
    _ZN5creek19BytecodeInterpreter9load_fileERKNSt7__cxx1112basic_stringIcSt11char_traitsIcESaIcEEE @199
    _ZN5creek19BytecodeInterpreter9save_fileERKNSt7__cxx1112basic_stringIcSt11char_traitsIcESaIcEEEPKNS_10ExpressionE @200
    _ZN5creek19BytecodeInterpreterC1Ev @201
    _ZN5creek19BytecodeInterpreterC2Ev @202
    _ZN5creek19InterpreterOperatorC1ERKNSt7__cxx1112basic_stringIcSt11char_traitsIcESaIcEEEi @203
    _ZN5creek19InterpreterOperatorC2ERKNSt7__cxx1112basic_stringIcSt11char_traitsIcESaIcEEEi @204
    _ZN5creek19UnexpectedCharacterC1ERKNS_5TokenE @205
    _ZN5creek19UnexpectedCharacterC2ERKNS_5TokenE @206
    _ZN5creek21load_standard_libraryERNS_5ScopeE @207
    _ZN5creek22ExprVariadicCallMethod4evalERNS_5ScopeE @208
    _ZN5creek22ExprVariadicCallMethodC1EPNS_10ExpressionES2_RKSt6vectorIS2_SaIS2_EES2_ @209
    _ZN5creek22ExprVariadicCallMethodC2EPNS_10ExpressionES2_RKSt6vectorIS2_SaIS2_EES2_ @210
    _ZN5creek4Data14bit_left_shiftEPS0_ @211
    _ZN5creek4Data15bit_right_shiftEPS0_ @212
    _ZN5creek4Data3addEPS0_ @213
    _ZN5creek4Data3cmpEPS0_ @214
    _ZN5creek4Data3divEPS0_ @215
    _ZN5creek4Data3expEPS0_ @216
    _ZN5creek4Data3modEPS0_ @217
    _ZN5creek4Data3mulEPS0_ @218
    _ZN5creek4Data3subEPS0_ @219
    _ZN5creek4Data3unmEv @220
    _ZN5creek4Data4callERSt6vectorISt10unique_ptrIS0_St14default_deleteIS0_EESaIS5_EE @221
    _ZN5creek4Data5indexEPS0_ @222
    _ZN5creek4Data5indexEPS0_S1_ @223
    _ZN5creek4Data6bit_orEPS0_ @224
    _ZN5creek4Data7bit_andEPS0_ @225
    _ZN5creek4Data7bit_notEv @226
    _ZN5creek4Data7bit_xorEPS0_ @227
    _ZN5creek4Data9get_classEv @228
    _ZN5creek4Null3cmpEPNS_4DataE @229
    _ZN5creek4Null9get_classEv @230
    _ZN5creek4NullC1Ev @231
    _ZN5creek4NullC2Ev @232
    _ZN5creek4Void9get_classEv @233
    _ZN5creek5Scope16create_local_varENS_7VarNameEPNS_4DataE @234
    _ZN5creek5Scope8find_varENS_7VarNameE @235
    _ZN5creek5ScopeC1ERS0_ @236
    _ZN5creek5ScopeC1ERS0_RKSt10shared_ptrINS0_11ReturnPointEERKS2_INS0_10BreakPointEE @237
    _ZN5creek5ScopeC1Ev @238
    _ZN5creek5ScopeC2ERS0_ @239
    _ZN5creek5ScopeC2ERS0_RKSt10shared_ptrINS0_11ReturnPointEERKS2_INS0_10BreakPointEE @240
    _ZN5creek5ScopeC2Ev @241
    _ZN5creek5Token10type_namesB5cxx11E @242 DATA
    _ZN5creek5TokenC1ENS_9TokenTypeERKNSt7__cxx1112basic_stringIcSt11char_traitsIcESaIcEEEii @243
    _ZN5creek5TokenC1EOS0_ @244
    _ZN5creek5TokenC1ERKS0_ @245
    _ZN5creek5TokenC2ENS_9TokenTypeERKNSt7__cxx1112basic_stringIcSt11char_traitsIcESaIcEEEii @246
    _ZN5creek5TokenC2EOS0_ @247
    _ZN5creek5TokenC2ERKS0_ @248
    _ZN5creek6Endian14bytes_to_sint8ERKNSt7__cxx1112basic_stringIcSt11char_traitsIcESaIcEEE @249
    _ZN5creek6Endian14sint8_to_bytesB5cxx11Ea @250
    _ZN5creek6Endian15bytes_to_sint16ERKNSt7__cxx1112basic_stringIcSt11char_traitsIcESaIcEEE @251
    _ZN5creek6Endian15bytes_to_sint32ERKNSt7__cxx1112basic_stringIcSt11char_traitsIcESaIcEEE @252
    _ZN5creek6Endian15bytes_to_sint64ERKNSt7__cxx1112basic_stringIcSt11char_traitsIcESaIcEEE @253
    _ZN5creek6Endian15sint16_to_bytesB5cxx11Es @254
    _ZN5creek6Endian15sint32_to_bytesB5cxx11Ei @255
    _ZN5creek6Endian15sint64_to_bytesB5cxx11Ex @256
    _ZN5creek6Endian16bytes_to_float32ERKNSt7__cxx1112basic_stringIcSt11char_traitsIcESaIcEEE @257
    _ZN5creek6Endian16bytes_to_float64ERKNSt7__cxx1112basic_stringIcSt11char_traitsIcESaIcEEE @258
    _ZN5creek6Endian16float32_to_bytesB5cxx11Ef @259
    _ZN5creek6Endian16float64_to_bytesB5cxx11Ed @260
    _ZN5creek6Endian8indexes8Ev @261
    _ZN5creek6Endian9indexes16Ev @262
    _ZN5creek6Endian9indexes32Ev @263
    _ZN5creek6Endian9indexes64Ev @264
    _ZN5creek6ExprDo4evalERNS_5ScopeE @265
    _ZN5creek6ExprDoC1EPNS_10ExpressionE @266
    _ZN5creek6ExprDoC2EPNS_10ExpressionE @267
    _ZN5creek6ExprEQ4evalERNS_5ScopeE @268
    _ZN5creek6ExprEQC1EPNS_10ExpressionES2_ @269
    _ZN5creek6ExprEQC2EPNS_10ExpressionES2_ @270
    _ZN5creek6ExprGE4evalERNS_5ScopeE @271
    _ZN5creek6ExprGEC1EPNS_10ExpressionES2_ @272
    _ZN5creek6ExprGEC2EPNS_10ExpressionES2_ @273
    _ZN5creek6ExprGT4evalERNS_5ScopeE @274
    _ZN5creek6ExprGTC1EPNS_10ExpressionES2_ @275
    _ZN5creek6ExprGTC2EPNS_10ExpressionES2_ @276
    _ZN5creek6ExprIf4evalERNS_5ScopeE @277
    _ZN5creek6ExprIfC1EPNS_10ExpressionES2_S2_ @278
    _ZN5creek6ExprIfC2EPNS_10ExpressionES2_S2_ @279
    _ZN5creek6ExprLE4evalERNS_5ScopeE @280
    _ZN5creek6ExprLEC1EPNS_10ExpressionES2_ @281
    _ZN5creek6ExprLEC2EPNS_10ExpressionES2_ @282
    _ZN5creek6ExprLT4evalERNS_5ScopeE @283
    _ZN5creek6ExprLTC1EPNS_10ExpressionES2_ @284
    _ZN5creek6ExprLTC2EPNS_10ExpressionES2_ @285
    _ZN5creek6ExprNE4evalERNS_5ScopeE @286
    _ZN5creek6ExprNEC1EPNS_10ExpressionES2_ @287
    _ZN5creek6ExprNEC2EPNS_10ExpressionES2_ @288
    _ZN5creek6Number14bit_left_shiftEPNS_4DataE @289
    _ZN5creek6Number15bit_right_shiftEPNS_4DataE @290
    _ZN5creek6Number3addEPNS_4DataE @291
    _ZN5creek6Number3cmpEPNS_4DataE @292
    _ZN5creek6Number3divEPNS_4DataE @293
    _ZN5creek6Number3expEPNS_4DataE @294
    _ZN5creek6Number3modEPNS_4DataE @295
    _ZN5creek6Number3mulEPNS_4DataE @296
    _ZN5creek6Number3subEPNS_4DataE @297
    _ZN5creek6Number3unmEv @298
    _ZN5creek6Number6bit_orEPNS_4DataE @299
    _ZN5creek6Number7bit_andEPNS_4DataE @300
    _ZN5creek6Number7bit_notEv @301
    _ZN5creek6Number7bit_xorEPNS_4DataE @302
    _ZN5creek6Number9get_classEv @303
    _ZN5creek6NumberC1Ef @304
    _ZN5creek6NumberC2Ef @305
    _ZN5creek6Object11call_methodERKNSt7__cxx1112basic_stringIcSt11char_traitsIcESaIcEEERKSt6vectorIPNS_4DataESaISB_EE @306
    _ZN5creek6Object11call_methodERKNSt7__cxx1112basic_stringIcSt11char_traitsIcESaIcEEERSt6vectorISt10unique_ptrINS_4DataESt14default_deleteISB_EESaISE_EE @307
    _ZN5creek6Object14bit_left_shiftEPNS_4DataE @308
    _ZN5creek6Object15bit_right_shiftEPNS_4DataE @309
    _ZN5creek6Object3addEPNS_4DataE @310
    _ZN5creek6Object3cmpEPNS_4DataE @311
    _ZN5creek6Object3divEPNS_4DataE @312
    _ZN5creek6Object3expEPNS_4DataE @313
    _ZN5creek6Object3modEPNS_4DataE @314
    _ZN5creek6Object3mulEPNS_4DataE @315
    _ZN5creek6Object3subEPNS_4DataE @316
    _ZN5creek6Object3unmEv @317
    _ZN5creek6Object4callERSt6vectorISt10unique_ptrINS_4DataESt14default_deleteIS3_EESaIS6_EE @318
    _ZN5creek6Object4makeEPNS_4DataERKSt3mapINS_7VarNameENS_8VariableESt4lessIS4_ESaISt4pairIKS4_S5_EEE @319
    _ZN5creek6Object5indexEPNS_4DataE @320
    _ZN5creek6Object5indexEPNS_4DataES2_ @321
    _ZN5creek6Object5valueEv @322
    _ZN5creek6Object6bit_orEPNS_4DataE @323
    _ZN5creek6Object7bit_andEPNS_4DataE @324
    _ZN5creek6Object7bit_notEv @325
    _ZN5creek6Object7bit_xorEPNS_4DataE @326
    _ZN5creek6Object9get_classEv @327
    _ZN5creek6Object9set_classEPNS_4DataE @328
    _ZN5creek6ObjectC1EPNS_4DataERKSt6vectorISt5tupleIJNS_8VariableES5_EESaIS6_EE @329
    _ZN5creek6ObjectC1ERKSt10shared_ptrINS0_10DefinitionEE @330
    _ZN5creek6ObjectC2EPNS_4DataERKSt6vectorISt5tupleIJNS_8VariableES5_EESaIS6_EE @331
    _ZN5creek6ObjectC2ERKSt10shared_ptrINS0_10DefinitionEE @332
    _ZN5creek6String3addEPNS_4DataE @333
    _ZN5creek6String3cmpEPNS_4DataE @334
    _ZN5creek6String3mulEPNS_4DataE @335
    _ZN5creek6String5indexEPNS_4DataE @336
    _ZN5creek6String5indexEPNS_4DataES2_ @337
    _ZN5creek6String9get_classEv @338
    _ZN5creek6StringC1ENSt7__cxx1112basic_stringIcSt11char_traitsIcESaIcEEE @339
    _ZN5creek6StringC2ENSt7__cxx1112basic_stringIcSt11char_traitsIcESaIcEEE @340
    _ZN5creek6Vector3cmpEPNS_4DataE @341
    _ZN5creek6Vector5indexEPNS_4DataE @342
    _ZN5creek6Vector5indexEPNS_4DataES2_ @343
    _ZN5creek6Vector9get_classEv @344
    _ZN5creek6VectorC1ERKSt10shared_ptrISt6vectorINS_8VariableESaIS3_EEE @345
    _ZN5creek6VectorC2ERKSt10shared_ptrISt6vectorINS_8VariableESaIS3_EEE @346
    _ZN5creek7Boolean3cmpEPNS_4DataE @347
    _ZN5creek7Boolean9get_classEv @348
    _ZN5creek7BooleanC1Eb @349
    _ZN5creek7BooleanC2Eb @350
    _ZN5creek7DynFunc18make_dyn_func_nameERKNSt7__cxx1112basic_stringIcSt11char_traitsIcESaIcEEE @351
    _ZN5creek7DynFuncC1EjbSt8functionIFPNS_4DataERNS_5ScopeERSt6vectorISt10unique_ptrIS2_St14default_deleteIS2_EESaISA_EEEE @352
    _ZN5creek7DynFuncC2EjbSt8functionIFPNS_4DataERNS_5ScopeERSt6vectorISt10unique_ptrIS2_St14default_deleteIS2_EESaISA_EEEE @353
    _ZN5creek7ExprCmp4evalERNS_5ScopeE @354
    _ZN5creek7ExprCmpC1EPNS_10ExpressionES2_ @355
    _ZN5creek7ExprCmpC2EPNS_10ExpressionES2_ @356
    _ZN5creek7ExprFor4evalERNS_5ScopeE @357
    _ZN5creek7ExprForC1ENS_7VarNameEPNS_10ExpressionES3_S3_S3_ @358
    _ZN5creek7ExprForC2ENS_7VarNameEPNS_10ExpressionES3_S3_S3_ @359
    _ZN5creek7ExprTry4evalERNS_5ScopeE @360
    _ZN5creek7ExprTryC1EPNS_10ExpressionES2_ @361
    _ZN5creek7ExprTryC2EPNS_10ExpressionES2_ @362
    _ZN5creek7VarName5s_idsB5cxx11E @363 DATA
    _ZN5creek7VarName7from_idEy @364
    _ZN5creek7VarName7s_namesB5cxx11E @365 DATA
    _ZN5creek7VarName9from_nameERKNSt7__cxx1112basic_stringIcSt11char_traitsIcESaIcEEE @366
    _ZN5creek7VarNameC1EOS0_ @367
    _ZN5creek7VarNameC1EPKc @368
    _ZN5creek7VarNameC1ERKNSt7__cxx1112basic_stringIcSt11char_traitsIcESaIcEEE @369
    _ZN5creek7VarNameC1ERKS0_ @370
    _ZN5creek7VarNameC1Ev @371
    _ZN5creek7VarNameC1Ey @372
    _ZN5creek7VarNameC2EOS0_ @373
    _ZN5creek7VarNameC2EPKc @374
    _ZN5creek7VarNameC2ERKNSt7__cxx1112basic_stringIcSt11char_traitsIcESaIcEEE @375
    _ZN5creek7VarNameC2ERKS0_ @376
    _ZN5creek7VarNameC2Ev @377
    _ZN5creek7VarNameC2Ey @378
    _ZN5creek7VarNameaSERKS0_ @379
    _ZN5creek7Version6linkedEv @380
    _ZN5creek7Version6loadedEv @381
    _ZN5creek8Bytecode4readB5cxx11Ej @382
    _ZN5creek8Bytecode5writeERKNSt7__cxx1112basic_stringIcSt11char_traitsIcESaIcEEE @383
    _ZN5creek8BytecodeC1EONSt7__cxx1118basic_stringstreamIcSt11char_traitsIcESaIcEEE @384
    _ZN5creek8BytecodeC1EOS0_ @385
    _ZN5creek8BytecodeC1ERKNSt7__cxx1112basic_stringIcSt11char_traitsIcESaIcEEE @386
    _ZN5creek8BytecodeC1ERKNSt7__cxx1118basic_stringstreamIcSt11char_traitsIcESaIcEEE @387
    _ZN5creek8BytecodeC1ERKS0_ @388
    _ZN5creek8BytecodeC1Ev @389
    _ZN5creek8BytecodeC2EONSt7__cxx1118basic_stringstreamIcSt11char_traitsIcESaIcEEE @390
    _ZN5creek8BytecodeC2EOS0_ @391
    _ZN5creek8BytecodeC2ERKNSt7__cxx1112basic_stringIcSt11char_traitsIcESaIcEEE @392
    _ZN5creek8BytecodeC2ERKNSt7__cxx1118basic_stringstreamIcSt11char_traitsIcESaIcEEE @393
    _ZN5creek8BytecodeC2ERKS0_ @394
    _ZN5creek8BytecodeC2Ev @395
    _ZN5creek8BytecodelsERKNSt7__cxx1112basic_stringIcSt11char_traitsIcESaIcEEE @396
    _ZN5creek8BytecodelsERKS0_ @397
    _ZN5creek8BytecodelsEa @398
    _ZN5creek8BytecodelsEb @399
    _ZN5creek8BytecodelsEd @400
    _ZN5creek8BytecodelsEf @401
    _ZN5creek8BytecodelsEh @402
    _ZN5creek8BytecodelsEi @403
    _ZN5creek8BytecodelsEj @404
    _ZN5creek8BytecodelsEs @405
    _ZN5creek8BytecodelsEt @406
    _ZN5creek8BytecodelsEx @407
    _ZN5creek8BytecodelsEy @408
    _ZN5creek8BytecodersERNSt7__cxx1112basic_stringIcSt11char_traitsIcESaIcEEE @409
    _ZN5creek8BytecodersERa @410
    _ZN5creek8BytecodersERb @411
    _ZN5creek8BytecodersERd @412
    _ZN5creek8BytecodersERf @413
    _ZN5creek8BytecodersERh @414
    _ZN5creek8BytecodersERi @415
    _ZN5creek8BytecodersERj @416
    _ZN5creek8BytecodersERs @417
    _ZN5creek8BytecodersERt @418
    _ZN5creek8BytecodersERx @419
    _ZN5creek8BytecodersERy @420
    _ZN5creek8ExprCall4evalERNS_5ScopeE @421
    _ZN5creek8ExprCallC1EPNS_10ExpressionERKSt6vectorIS2_SaIS2_EE @422
    _ZN5creek8ExprCallC2EPNS_10ExpressionERKSt6vectorIS2_SaIS2_EE @423
    _ZN5creek8ExprLoop4evalERNS_5ScopeE @424
    _ZN5creek8ExprLoopC1EPNS_10ExpressionE @425
    _ZN5creek8ExprLoopC2EPNS_10ExpressionE @426
    _ZN5creek8ExprNull4evalERNS_5ScopeE @427
    _ZN5creek8ExprNullC1Ev @428
    _ZN5creek8ExprNullC2Ev @429
    _ZN5creek8ExprVoid4evalERNS_5ScopeE @430
    _ZN5creek8ExprVoidC1Ev @431
    _ZN5creek8ExprVoidC2Ev @432
    _ZN5creek8Function3cmpEPNS_4DataE @433
    _ZN5creek8Function4callERSt6vectorISt10unique_ptrINS_4DataESt14default_deleteIS3_EESaIS6_EE @434
    _ZN5creek8FunctionC1ERKSt10shared_ptrINS0_10DefinitionEE @435
    _ZN5creek8FunctionC2ERKSt10shared_ptrINS0_10DefinitionEE @436
    _ZN5creek8Variable14bit_left_shiftERS0_ @437
    _ZN5creek8Variable15bit_right_shiftERS0_ @438
    _ZN5creek8Variable3addERS0_ @439
    _ZN5creek8Variable3cmpERS0_ @440
    _ZN5creek8Variable3divERS0_ @441
    _ZN5creek8Variable3expERS0_ @442
    _ZN5creek8Variable3modERS0_ @443
    _ZN5creek8Variable3mulERS0_ @444
    _ZN5creek8Variable3subERS0_ @445
    _ZN5creek8Variable3unmEv @446
    _ZN5creek8Variable4dataEPNS_4DataE @447
    _ZN5creek8Variable4dataEv @448
    _ZN5creek8Variable4swapERS0_ @449
    _ZN5creek8Variable5indexES0_ @450
    _ZN5creek8Variable5indexES0_S0_ @451
    _ZN5creek8Variable6bit_orERS0_ @452
    _ZN5creek8Variable7bit_andERS0_ @453
    _ZN5creek8Variable7bit_notEv @454
    _ZN5creek8Variable7bit_xorERS0_ @455
    _ZN5creek8Variable7releaseEv @456
    _ZN5creek8VariableC1EOS0_ @457
    _ZN5creek8VariableC1EPNS_4DataE @458
    _ZN5creek8VariableC1ERKS0_ @459
    _ZN5creek8VariableC1Ev @460
    _ZN5creek8VariableC2EOS0_ @461
    _ZN5creek8VariableC2EPNS_4DataE @462
    _ZN5creek8VariableC2ERKS0_ @463
    _ZN5creek8VariableC2Ev @464
    _ZN5creek8VariableD1Ev @465
    _ZN5creek8VariableD2Ev @466
    _ZN5creek8VariableaSEOS0_ @467
    _ZN5creek8VariableaSERKS0_ @468
    _ZN5creek8VariableanERS0_ @469
    _ZN5creek8VariablecoEv @470
    _ZN5creek8VariabledeEv @471
    _ZN5creek8VariabledvERS0_ @472
    _ZN5creek8VariableeoERS0_ @473
    _ZN5creek8VariablemiERS0_ @474
    _ZN5creek8VariablemlERS0_ @475
    _ZN5creek8VariablengEv @476
    _ZN5creek8VariableorERS0_ @477
    _ZN5creek8VariableplERS0_ @478
    _ZN5creek8VariableptEv @479
    _ZN5creek8VariablermERS0_ @480
    _ZN5creek9CFunction3cmpEPNS_4DataE @481
    _ZN5creek9CFunction4callERSt6vectorISt10unique_ptrINS_4DataESt14default_deleteIS3_EESaIS6_EE @482
    _ZN5creek9CFunctionC1ERKSt10shared_ptrINS0_10DefinitionEE @483
    _ZN5creek9CFunctionC1ERNS_5ScopeEibSt8functionIFPNS_4DataES2_RSt6vectorISt10unique_ptrIS4_St14default_deleteIS4_EESaISA_EEEE @484
    _ZN5creek9CFunctionC2ERKSt10shared_ptrINS0_10DefinitionEE @485
    _ZN5creek9CFunctionC2ERNS_5ScopeEibSt8functionIFPNS_4DataES2_RSt6vectorISt10unique_ptrIS4_St14default_deleteIS4_EESaISA_EEEE @486
    _ZN5creek9Exception6streamB5cxx11Ev @487
    _ZN5creek9ExceptionC1EOS0_ @488
    _ZN5creek9ExceptionC1ERKNSt7__cxx1112basic_stringIcSt11char_traitsIcESaIcEEE @489
    _ZN5creek9ExceptionC1ERKS0_ @490
    _ZN5creek9ExceptionC1Ev @491
    _ZN5creek9ExceptionC2EOS0_ @492
    _ZN5creek9ExceptionC2ERKNSt7__cxx1112basic_stringIcSt11char_traitsIcESaIcEEE @493
    _ZN5creek9ExceptionC2ERKS0_ @494
    _ZN5creek9ExceptionC2Ev @495
    _ZN5creek9ExprBreak4evalERNS_5ScopeE @496
    _ZN5creek9ExprBreakC1EPNS_10ExpressionE @497
    _ZN5creek9ExprBreakC2EPNS_10ExpressionE @498
    _ZN5creek9ExprClass4evalERNS_5ScopeE @499
    _ZN5creek9ExprClassC1ENS_7VarNameEPNS_10ExpressionERSt6vectorINS0_9MethodDefESaIS5_EE @500
    _ZN5creek9ExprClassC2ENS_7VarNameEPNS_10ExpressionERSt6vectorINS0_9MethodDefESaIS5_EE @501
    _ZN5creek9ExprConst4evalERNS_5ScopeE @502
    _ZN5creek9ExprConstC1EPNS_4DataE @503
    _ZN5creek9ExprConstC2EPNS_4DataE @504
    _ZN5creek9ExprForIn4evalERNS_5ScopeE @505
    _ZN5creek9ExprForInC1ENS_7VarNameEPNS_10ExpressionES3_ @506
    _ZN5creek9ExprForInC2ENS_7VarNameEPNS_10ExpressionES3_ @507
    _ZN5creek9ExprPrint4evalERNS_5ScopeE @508
    _ZN5creek9ExprPrintC1EPNS_10ExpressionE @509
    _ZN5creek9ExprPrintC2EPNS_10ExpressionE @510
    _ZN5creek9ExprThrow4evalERNS_5ScopeE @511
    _ZN5creek9ExprThrowC1EPNS_10ExpressionE @512
    _ZN5creek9ExprThrowC2EPNS_10ExpressionE @513
    _ZN5creek9ExprUnaryILNS_6OpCodeE22EXadL_ZNS_4Data3unmEvEEE4evalERNS_5ScopeE @514
    _ZN5creek9ExprUnaryILNS_6OpCodeE22EXadL_ZNS_4Data3unmEvEEEC1EPNS_10ExpressionE @515
    _ZN5creek9ExprUnaryILNS_6OpCodeE26EXadL_ZNS_4Data7bit_notEvEEE4evalERNS_5ScopeE @516
    _ZN5creek9ExprUnaryILNS_6OpCodeE26EXadL_ZNS_4Data7bit_notEvEEEC1EPNS_10ExpressionE @517
    _ZN5creek9ExprWhile4evalERNS_5ScopeE @518
    _ZN5creek9ExprWhileC1EPNS_10ExpressionES2_ @519
    _ZN5creek9ExprWhileC2EPNS_10ExpressionES2_ @520
    _ZN5creek9UndefinedC1ERKNSt7__cxx1112basic_stringIcSt11char_traitsIcESaIcEEE @521
    _ZN5creek9UndefinedC2ERKNSt7__cxx1112basic_stringIcSt11char_traitsIcESaIcEEE @522
    _ZNK5creek10ExprBinaryILNS_6OpCodeE16EXadL_ZNS_4Data3addEPS2_EEE14const_optimizeEv @523
    _ZNK5creek10ExprBinaryILNS_6OpCodeE16EXadL_ZNS_4Data3addEPS2_EEE5cloneEv @524
    _ZNK5creek10ExprBinaryILNS_6OpCodeE16EXadL_ZNS_4Data3addEPS2_EEE8bytecodeERNS_10VarNameMapE @525
    _ZNK5creek10ExprBinaryILNS_6OpCodeE16EXadL_ZNS_4Data3addEPS2_EEE8is_constEv @526
    _ZNK5creek10ExprBinaryILNS_6OpCodeE17EXadL_ZNS_4Data3subEPS2_EEE14const_optimizeEv @527
    _ZNK5creek10ExprBinaryILNS_6OpCodeE17EXadL_ZNS_4Data3subEPS2_EEE5cloneEv @528
    _ZNK5creek10ExprBinaryILNS_6OpCodeE17EXadL_ZNS_4Data3subEPS2_EEE8bytecodeERNS_10VarNameMapE @529
    _ZNK5creek10ExprBinaryILNS_6OpCodeE17EXadL_ZNS_4Data3subEPS2_EEE8is_constEv @530
    _ZNK5creek10ExprBinaryILNS_6OpCodeE18EXadL_ZNS_4Data3mulEPS2_EEE14const_optimizeEv @531
    _ZNK5creek10ExprBinaryILNS_6OpCodeE18EXadL_ZNS_4Data3mulEPS2_EEE5cloneEv @532
    _ZNK5creek10ExprBinaryILNS_6OpCodeE18EXadL_ZNS_4Data3mulEPS2_EEE8bytecodeERNS_10VarNameMapE @533
    _ZNK5creek10ExprBinaryILNS_6OpCodeE18EXadL_ZNS_4Data3mulEPS2_EEE8is_constEv @534
    _ZNK5creek10ExprBinaryILNS_6OpCodeE19EXadL_ZNS_4Data3divEPS2_EEE14const_optimizeEv @535
    _ZNK5creek10ExprBinaryILNS_6OpCodeE19EXadL_ZNS_4Data3divEPS2_EEE5cloneEv @536
    _ZNK5creek10ExprBinaryILNS_6OpCodeE19EXadL_ZNS_4Data3divEPS2_EEE8bytecodeERNS_10VarNameMapE @537
    _ZNK5creek10ExprBinaryILNS_6OpCodeE19EXadL_ZNS_4Data3divEPS2_EEE8is_constEv @538
    _ZNK5creek10ExprBinaryILNS_6OpCodeE20EXadL_ZNS_4Data3modEPS2_EEE14const_optimizeEv @539
    _ZNK5creek10ExprBinaryILNS_6OpCodeE20EXadL_ZNS_4Data3modEPS2_EEE5cloneEv @540
    _ZNK5creek10ExprBinaryILNS_6OpCodeE20EXadL_ZNS_4Data3modEPS2_EEE8bytecodeERNS_10VarNameMapE @541
    _ZNK5creek10ExprBinaryILNS_6OpCodeE20EXadL_ZNS_4Data3modEPS2_EEE8is_constEv @542
    _ZNK5creek10ExprBinaryILNS_6OpCodeE21EXadL_ZNS_4Data3expEPS2_EEE14const_optimizeEv @543
    _ZNK5creek10ExprBinaryILNS_6OpCodeE21EXadL_ZNS_4Data3expEPS2_EEE5cloneEv @544
    _ZNK5creek10ExprBinaryILNS_6OpCodeE21EXadL_ZNS_4Data3expEPS2_EEE8bytecodeERNS_10VarNameMapE @545
    _ZNK5creek10ExprBinaryILNS_6OpCodeE21EXadL_ZNS_4Data3expEPS2_EEE8is_constEv @546
    _ZNK5creek10ExprBinaryILNS_6OpCodeE23EXadL_ZNS_4Data7bit_andEPS2_EEE14const_optimizeEv @547
    _ZNK5creek10ExprBinaryILNS_6OpCodeE23EXadL_ZNS_4Data7bit_andEPS2_EEE5cloneEv @548
    _ZNK5creek10ExprBinaryILNS_6OpCodeE23EXadL_ZNS_4Data7bit_andEPS2_EEE8bytecodeERNS_10VarNameMapE @549
    _ZNK5creek10ExprBinaryILNS_6OpCodeE23EXadL_ZNS_4Data7bit_andEPS2_EEE8is_constEv @550
    _ZNK5creek10ExprBinaryILNS_6OpCodeE24EXadL_ZNS_4Data6bit_orEPS2_EEE14const_optimizeEv @551
    _ZNK5creek10ExprBinaryILNS_6OpCodeE24EXadL_ZNS_4Data6bit_orEPS2_EEE5cloneEv @552
    _ZNK5creek10ExprBinaryILNS_6OpCodeE24EXadL_ZNS_4Data6bit_orEPS2_EEE8bytecodeERNS_10VarNameMapE @553
    _ZNK5creek10ExprBinaryILNS_6OpCodeE24EXadL_ZNS_4Data6bit_orEPS2_EEE8is_constEv @554
    _ZNK5creek10ExprBinaryILNS_6OpCodeE25EXadL_ZNS_4Data7bit_xorEPS2_EEE14const_optimizeEv @555
    _ZNK5creek10ExprBinaryILNS_6OpCodeE25EXadL_ZNS_4Data7bit_xorEPS2_EEE5cloneEv @556
    _ZNK5creek10ExprBinaryILNS_6OpCodeE25EXadL_ZNS_4Data7bit_xorEPS2_EEE8bytecodeERNS_10VarNameMapE @557
    _ZNK5creek10ExprBinaryILNS_6OpCodeE25EXadL_ZNS_4Data7bit_xorEPS2_EEE8is_constEv @558
    _ZNK5creek10ExprBinaryILNS_6OpCodeE27EXadL_ZNS_4Data14bit_left_shiftEPS2_EEE14const_optimizeEv @559
    _ZNK5creek10ExprBinaryILNS_6OpCodeE27EXadL_ZNS_4Data14bit_left_shiftEPS2_EEE5cloneEv @560
    _ZNK5creek10ExprBinaryILNS_6OpCodeE27EXadL_ZNS_4Data14bit_left_shiftEPS2_EEE8bytecodeERNS_10VarNameMapE @561
    _ZNK5creek10ExprBinaryILNS_6OpCodeE27EXadL_ZNS_4Data14bit_left_shiftEPS2_EEE8is_constEv @562
    _ZNK5creek10ExprBinaryILNS_6OpCodeE28EXadL_ZNS_4Data15bit_right_shiftEPS2_EEE14const_optimizeEv @563
    _ZNK5creek10ExprBinaryILNS_6OpCodeE28EXadL_ZNS_4Data15bit_right_shiftEPS2_EEE5cloneEv @564
    _ZNK5creek10ExprBinaryILNS_6OpCodeE28EXadL_ZNS_4Data15bit_right_shiftEPS2_EEE8bytecodeERNS_10VarNameMapE @565
    _ZNK5creek10ExprBinaryILNS_6OpCodeE28EXadL_ZNS_4Data15bit_right_shiftEPS2_EEE8is_constEv @566
    _ZNK5creek10ExprBoolOr14const_optimizeEv @567
    _ZNK5creek10ExprBoolOr5cloneEv @568
    _ZNK5creek10ExprBoolOr8bytecodeERNS_10VarNameMapE @569
    _ZNK5creek10ExprBoolOr8is_constEv @570
    _ZNK5creek10ExprNumber5cloneEv @571
    _ZNK5creek10ExprNumber8bytecodeERNS_10VarNameMapE @572
    _ZNK5creek10ExprNumber8is_constEv @573
    _ZNK5creek10ExprReturn14const_optimizeEv @574
    _ZNK5creek10ExprReturn5cloneEv @575
    _ZNK5creek10ExprReturn8bytecodeERNS_10VarNameMapE @576
    _ZNK5creek10ExprReturn8is_constEv @577
    _ZNK5creek10ExprString5cloneEv @578
    _ZNK5creek10ExprString8bytecodeERNS_10VarNameMapE @579
    _ZNK5creek10ExprString8is_constEv @580
    _ZNK5creek10ExprSwitch14const_optimizeEv @581
    _ZNK5creek10ExprSwitch5cloneEv @582
    _ZNK5creek10ExprSwitch8bytecodeERNS_10VarNameMapE @583
    _ZNK5creek10ExprSwitch8is_constEv @584
    _ZNK5creek10ExprVector14const_optimizeEv @585
    _ZNK5creek10ExprVector5cloneEv @586
    _ZNK5creek10ExprVector8bytecodeERNS_10VarNameMapE @587
    _ZNK5creek10ExprVector8is_constEv @588
    _ZNK5creek10Expression14const_optimizeEv @589
    _ZNK5creek10Expression8is_constEv @590
    _ZNK5creek10Identifier10bool_valueEv @591
    _ZNK5creek10Identifier10class_nameB5cxx11Ev @592
    _ZNK5creek10Identifier10debug_textB5cxx11Ev @593
    _ZNK5creek10Identifier11float_valueEv @594
    _ZNK5creek10Identifier12string_valueB5cxx11Ev @595
    _ZNK5creek10Identifier13to_expressionEv @596
    _ZNK5creek10Identifier4copyEv @597
    _ZNK5creek10Identifier9int_valueEv @598
    _ZNK5creek10LexicError4lineEv @599
    _ZNK5creek10LexicError6columnEv @600
    _ZNK5creek10VarNameMap12name_from_idB5cxx11Ey @601
    _ZNK5creek10VarNameMap17global_from_localEy @602
    _ZNK5creek10VarNameMap3mapB5cxx11Ev @603
    _ZNK5creek11BadArgument8arg_nameB5cxx11Ev @604
    _ZNK5creek11ExprBoolAnd14const_optimizeEv @605
    _ZNK5creek11ExprBoolAnd5cloneEv @606
    _ZNK5creek11ExprBoolAnd8bytecodeERNS_10VarNameMapE @607
    _ZNK5creek11ExprBoolAnd8is_constEv @608
    _ZNK5creek11ExprBoolNot14const_optimizeEv @609
    _ZNK5creek11ExprBoolNot5cloneEv @610
    _ZNK5creek11ExprBoolNot8bytecodeERNS_10VarNameMapE @611
    _ZNK5creek11ExprBoolNot8is_constEv @612
    _ZNK5creek11ExprBoolXor14const_optimizeEv @613
    _ZNK5creek11ExprBoolXor5cloneEv @614
    _ZNK5creek11ExprBoolXor8bytecodeERNS_10VarNameMapE @615
    _ZNK5creek11ExprBoolXor8is_constEv @616
    _ZNK5creek11ExprBoolean5cloneEv @617
    _ZNK5creek11ExprBoolean8bytecodeERNS_10VarNameMapE @618
    _ZNK5creek11ExprBoolean8is_constEv @619
    _ZNK5creek11ExprDynFunc5cloneEv @620
    _ZNK5creek11ExprDynFunc8bytecodeERNS_10VarNameMapE @621
    _ZNK5creek11SyntaxError5tokenEv @622
    _ZNK5creek12DynCFunction10class_nameB5cxx11Ev @623
    _ZNK5creek12DynCFunction10debug_textB5cxx11Ev @624
    _ZNK5creek12DynCFunction4copyEv @625
    _ZNK5creek12ExprFunction14const_optimizeEv @626
    _ZNK5creek12ExprFunction5cloneEv @627
    _ZNK5creek12ExprFunction8bytecodeERNS_10VarNameMapE @628
    _ZNK5creek12ExprFunction8is_constEv @629
    _ZNK5creek12ExprIndexGet14const_optimizeEv @630
    _ZNK5creek12ExprIndexGet5cloneEv @631
    _ZNK5creek12ExprIndexGet8bytecodeERNS_10VarNameMapE @632
    _ZNK5creek12ExprIndexGet8is_constEv @633
    _ZNK5creek12ExprIndexSet14const_optimizeEv @634
    _ZNK5creek12ExprIndexSet5cloneEv @635
    _ZNK5creek12ExprIndexSet8bytecodeERNS_10VarNameMapE @636
    _ZNK5creek12ExprIndexSet8is_constEv @637
    _ZNK5creek12RuntimeError4exprEv @638
    _ZNK5creek13ExprLoadLocal14const_optimizeEv @639
    _ZNK5creek13ExprLoadLocal5cloneEv @640
    _ZNK5creek13ExprLoadLocal8bytecodeERNS_10VarNameMapE @641
    _ZNK5creek13ExprLoadLocal8is_constEv @642
    _ZNK5creek14AmbiguousToken5typesEv @643
    _ZNK5creek14ExprBasicBlock14const_optimizeEv @644
    _ZNK5creek14ExprBasicBlock5cloneEv @645
    _ZNK5creek14ExprBasicBlock8bytecodeERNS_10VarNameMapE @646
    _ZNK5creek14ExprBasicBlock8is_constEv @647
    _ZNK5creek14ExprCallMethod14const_optimizeEv @648
    _ZNK5creek14ExprCallMethod5cloneEv @649
    _ZNK5creek14ExprCallMethod8bytecodeERNS_10VarNameMapE @650
    _ZNK5creek14ExprCallMethod8is_constEv @651
    _ZNK5creek14ExprIdentifier5cloneEv @652
    _ZNK5creek14ExprIdentifier8bytecodeERNS_10VarNameMapE @653
    _ZNK5creek14ExprIdentifier8is_constEv @654
    _ZNK5creek14ExprLoadGlobal14const_optimizeEv @655
    _ZNK5creek14ExprLoadGlobal5cloneEv @656
    _ZNK5creek14ExprLoadGlobal8bytecodeERNS_10VarNameMapE @657
    _ZNK5creek14ExprLoadGlobal8is_constEv @658
    _ZNK5creek14ExprStoreLocal14const_optimizeEv @659
    _ZNK5creek14ExprStoreLocal5cloneEv @660
    _ZNK5creek14ExprStoreLocal8bytecodeERNS_10VarNameMapE @661
    _ZNK5creek14ExprStoreLocal8is_constEv @662
    _ZNK5creek15DynLibraryError4pathB5cxx11Ev @663
    _ZNK5creek15ExprCreateLocal14const_optimizeEv @664
    _ZNK5creek15ExprCreateLocal5cloneEv @665
    _ZNK5creek15ExprCreateLocal8bytecodeERNS_10VarNameMapE @666
    _ZNK5creek15ExprCreateLocal8is_constEv @667
    _ZNK5creek15ExprStoreGlobal14const_optimizeEv @668
    _ZNK5creek15ExprStoreGlobal5cloneEv @669
    _ZNK5creek15ExprStoreGlobal8bytecodeERNS_10VarNameMapE @670
    _ZNK5creek15ExprStoreGlobal8is_constEv @671
    _ZNK5creek16ExprCreateGlobal14const_optimizeEv @672
    _ZNK5creek16ExprCreateGlobal5cloneEv @673
    _ZNK5creek16ExprCreateGlobal8bytecodeERNS_10VarNameMapE @674
    _ZNK5creek16ExprCreateGlobal8is_constEv @675
    _ZNK5creek16ExprVariadicCall14const_optimizeEv @676
    _ZNK5creek16ExprVariadicCall5cloneEv @677
    _ZNK5creek16ExprVariadicCall8bytecodeERNS_10VarNameMapE @678
    _ZNK5creek16ExprVariadicCall8is_constEv @679
    _ZNK5creek17DynSymbolNotFound6symbolB5cxx11Ev @680
    _ZNK5creek18BadCharacterEscape3posEv @681
    _ZNK5creek18BadCharacterEscape6sourceB5cxx11Ev @682
    _ZNK5creek19InterpreterOperator10precedenceEv @683
    _ZNK5creek19InterpreterOperator6stringB5cxx11Ev @684
    _ZNK5creek19InterpreterOperatorltERKS0_ @685
    _ZNK5creek22ExprVariadicCallMethod14const_optimizeEv @686
    _ZNK5creek22ExprVariadicCallMethod5cloneEv @687
    _ZNK5creek22ExprVariadicCallMethod8bytecodeERNS_10VarNameMapE @688
    _ZNK5creek22ExprVariadicCallMethod8is_constEv @689
    _ZNK5creek4Data10bool_valueEv @690
    _ZNK5creek4Data10char_valueEv @691
    _ZNK5creek4Data10class_nameB5cxx11Ev @692
    _ZNK5creek4Data10debug_textB5cxx11Ev @693
    _ZNK5creek4Data11float_valueEv @694
    _ZNK5creek4Data12string_valueB5cxx11Ev @695
    _ZNK5creek4Data12vector_valueEv @696
    _ZNK5creek4Data13to_expressionEv @697
    _ZNK5creek4Data4copyEv @698
    _ZNK5creek4Data5cloneEv @699
    _ZNK5creek4Data9int_valueEv @700
    _ZNK5creek4Null10bool_valueEv @701
    _ZNK5creek4Null10class_nameB5cxx11Ev @702
    _ZNK5creek4Null10debug_textB5cxx11Ev @703
    _ZNK5creek4Null11float_valueEv @704
    _ZNK5creek4Null12string_valueB5cxx11Ev @705
    _ZNK5creek4Null13to_expressionEv @706
    _ZNK5creek4Null4copyEv @707
    _ZNK5creek4Null9int_valueEv @708
    _ZNK5creek4Void10bool_valueEv @709
    _ZNK5creek4Void10class_nameB5cxx11Ev @710
    _ZNK5creek4Void10debug_textB5cxx11Ev @711
    _ZNK5creek4Void13to_expressionEv @712
    _ZNK5creek4Void4copyEv @713
    _ZNK5creek5Scope11break_pointEv @714
    _ZNK5creek5Scope11is_breakingEv @715
    _ZNK5creek5Scope12is_returningEv @716
    _ZNK5creek5Scope12return_pointEv @717
    _ZNK5creek5Token10identifierB5cxx11Ev @718
    _ZNK5creek5Token4lineEv @719
    _ZNK5creek5Token4textB5cxx11Ev @720
    _ZNK5creek5Token4typeEv @721
    _ZNK5creek5Token6columnEv @722
    _ZNK5creek5Token6stringB5cxx11Ev @723
    _ZNK5creek5Token7booleanEv @724
    _ZNK5creek5Token7integerEv @725
    _ZNK5creek5Token8floatnumEv @726
    _ZNK5creek5Token9characterEv @727
    _ZNK5creek6ExprDo14const_optimizeEv @728
    _ZNK5creek6ExprDo5cloneEv @729
    _ZNK5creek6ExprDo8bytecodeERNS_10VarNameMapE @730
    _ZNK5creek6ExprDo8is_constEv @731
    _ZNK5creek6ExprEQ14const_optimizeEv @732
    _ZNK5creek6ExprEQ5cloneEv @733
    _ZNK5creek6ExprEQ8bytecodeERNS_10VarNameMapE @734
    _ZNK5creek6ExprEQ8is_constEv @735
    _ZNK5creek6ExprGE14const_optimizeEv @736
    _ZNK5creek6ExprGE5cloneEv @737
    _ZNK5creek6ExprGE8bytecodeERNS_10VarNameMapE @738
    _ZNK5creek6ExprGE8is_constEv @739
    _ZNK5creek6ExprGT14const_optimizeEv @740
    _ZNK5creek6ExprGT5cloneEv @741
    _ZNK5creek6ExprGT8bytecodeERNS_10VarNameMapE @742
    _ZNK5creek6ExprGT8is_constEv @743
    _ZNK5creek6ExprIf14const_optimizeEv @744
    _ZNK5creek6ExprIf5cloneEv @745
    _ZNK5creek6ExprIf8bytecodeERNS_10VarNameMapE @746
    _ZNK5creek6ExprIf8is_constEv @747
    _ZNK5creek6ExprLE14const_optimizeEv @748
    _ZNK5creek6ExprLE5cloneEv @749
    _ZNK5creek6ExprLE8bytecodeERNS_10VarNameMapE @750
    _ZNK5creek6ExprLE8is_constEv @751
    _ZNK5creek6ExprLT14const_optimizeEv @752
    _ZNK5creek6ExprLT5cloneEv @753
    _ZNK5creek6ExprLT8bytecodeERNS_10VarNameMapE @754
    _ZNK5creek6ExprLT8is_constEv @755
    _ZNK5creek6ExprNE14const_optimizeEv @756
    _ZNK5creek6ExprNE5cloneEv @757
    _ZNK5creek6ExprNE8bytecodeERNS_10VarNameMapE @758
    _ZNK5creek6ExprNE8is_constEv @759
    _ZNK5creek6Number10bool_valueEv @760
    _ZNK5creek6Number10class_nameB5cxx11Ev @761
    _ZNK5creek6Number10debug_textB5cxx11Ev @762
    _ZNK5creek6Number11float_valueEv @763
    _ZNK5creek6Number12string_valueB5cxx11Ev @764
    _ZNK5creek6Number13to_expressionEv @765
    _ZNK5creek6Number4copyEv @766
    _ZNK5creek6Number9int_valueEv @767
    _ZNK5creek6Object10bool_valueEv @768
    _ZNK5creek6Object10char_valueEv @769
    _ZNK5creek6Object10class_nameB5cxx11Ev @770
    _ZNK5creek6Object10debug_textB5cxx11Ev @771
    _ZNK5creek6Object11float_valueEv @772
    _ZNK5creek6Object12string_valueB5cxx11Ev @773
    _ZNK5creek6Object12vector_valueEv @774
    _ZNK5creek6Object4copyEv @775
    _ZNK5creek6Object5cloneEv @776
    _ZNK5creek6Object9int_valueEv @777
    _ZNK5creek6String10bool_valueEv @778
    _ZNK5creek6String10char_valueEv @779
    _ZNK5creek6String10class_nameB5cxx11Ev @780
    _ZNK5creek6String10debug_textB5cxx11Ev @781
    _ZNK5creek6String12string_valueB5cxx11Ev @782
    _ZNK5creek6String13to_expressionEv @783
    _ZNK5creek6String4copyEv @784
    _ZNK5creek6Vector10bool_valueEv @785
    _ZNK5creek6Vector10class_nameB5cxx11Ev @786
    _ZNK5creek6Vector10debug_textB5cxx11Ev @787
    _ZNK5creek6Vector12vector_valueEv @788
    _ZNK5creek6Vector13to_expressionEv @789
    _ZNK5creek6Vector4copyEv @790
    _ZNK5creek6Vector5valueEv @791
    _ZNK5creek7Boolean10bool_valueEv @792
    _ZNK5creek7Boolean10class_nameB5cxx11Ev @793
    _ZNK5creek7Boolean10debug_textB5cxx11Ev @794
    _ZNK5creek7Boolean11float_valueEv @795
    _ZNK5creek7Boolean12string_valueB5cxx11Ev @796
    _ZNK5creek7Boolean13to_expressionEv @797
    _ZNK5creek7Boolean4copyEv @798
    _ZNK5creek7Boolean9int_valueEv @799
    _ZNK5creek7DynFunc11is_variadicEv @800
    _ZNK5creek7DynFunc4argnEv @801
    _ZNK5creek7DynFunc8listenerEv @802
    _ZNK5creek7ExprCmp14const_optimizeEv @803
    _ZNK5creek7ExprCmp5cloneEv @804
    _ZNK5creek7ExprCmp8bytecodeERNS_10VarNameMapE @805
    _ZNK5creek7ExprCmp8is_constEv @806
    _ZNK5creek7ExprFor14const_optimizeEv @807
    _ZNK5creek7ExprFor5cloneEv @808
    _ZNK5creek7ExprFor8bytecodeERNS_10VarNameMapE @809
    _ZNK5creek7ExprFor8is_constEv @810
    _ZNK5creek7ExprTry14const_optimizeEv @811
    _ZNK5creek7ExprTry5cloneEv @812
    _ZNK5creek7ExprTry8bytecodeERNS_10VarNameMapE @813
    _ZNK5creek7ExprTry8is_constEv @814
    _ZNK5creek7VarName2idEv @815
    _ZNK5creek7VarName4nameB5cxx11Ev @816
    _ZNK5creek7VarNameeqERKS0_ @817
    _ZNK5creek7VarNamegeERKS0_ @818
    _ZNK5creek7VarNamegtERKS0_ @819
    _ZNK5creek7VarNameleERKS0_ @820
    _ZNK5creek7VarNameltERKS0_ @821
    _ZNK5creek7VarNameneERKS0_ @822
    _ZNK5creek7Version3strB5cxx11Ei @823
    _ZNK5creek7Version5majorEv @824
    _ZNK5creek7Version5minorEv @825
    _ZNK5creek7Version5patchEv @826
    _ZNK5creek8Bytecode5bytesB5cxx11Ejj @827
    _ZNK5creek8Bytecode5bytesB5cxx11Ev @828
    _ZNK5creek8BytecodecvbEv @829
    _ZNK5creek8ExprCall14const_optimizeEv @830
    _ZNK5creek8ExprCall5cloneEv @831
    _ZNK5creek8ExprCall8bytecodeERNS_10VarNameMapE @832
    _ZNK5creek8ExprCall8is_constEv @833
    _ZNK5creek8ExprLoop14const_optimizeEv @834
    _ZNK5creek8ExprLoop5cloneEv @835
    _ZNK5creek8ExprLoop8bytecodeERNS_10VarNameMapE @836
    _ZNK5creek8ExprLoop8is_constEv @837
    _ZNK5creek8ExprNull5cloneEv @838
    _ZNK5creek8ExprNull8bytecodeERNS_10VarNameMapE @839
    _ZNK5creek8ExprNull8is_constEv @840
    _ZNK5creek8ExprVoid5cloneEv @841
    _ZNK5creek8ExprVoid8bytecodeERNS_10VarNameMapE @842
    _ZNK5creek8ExprVoid8is_constEv @843
    _ZNK5creek8Function10bool_valueEv @844
    _ZNK5creek8Function10class_nameB5cxx11Ev @845
    _ZNK5creek8Function10debug_textB5cxx11Ev @846
    _ZNK5creek8Function13to_expressionEv @847
    _ZNK5creek8Function4copyEv @848
    _ZNK5creek8Variable4dataEv @849
    _ZNK5creek8VariablecvbEv @850
    _ZNK5creek8VariabledeEv @851
    _ZNK5creek8VariableptEv @852
    _ZNK5creek9CFunction10bool_valueEv @853
    _ZNK5creek9CFunction10class_nameB5cxx11Ev @854
    _ZNK5creek9CFunction10debug_textB5cxx11Ev @855
    _ZNK5creek9CFunction4copyEv @856
    _ZNK5creek9CFunction5valueEv @857
    _ZNK5creek9Exception7messageB5cxx11Ev @858
    _ZNK5creek9ExprBreak14const_optimizeEv @859
    _ZNK5creek9ExprBreak5cloneEv @860
    _ZNK5creek9ExprBreak8bytecodeERNS_10VarNameMapE @861
    _ZNK5creek9ExprBreak8is_constEv @862
    _ZNK5creek9ExprClass14const_optimizeEv @863
    _ZNK5creek9ExprClass5cloneEv @864
    _ZNK5creek9ExprClass8bytecodeERNS_10VarNameMapE @865
    _ZNK5creek9ExprClass8is_constEv @866
    _ZNK5creek9ExprConst5cloneEv @867
    _ZNK5creek9ExprConst8bytecodeERNS_10VarNameMapE @868
    _ZNK5creek9ExprConst8is_constEv @869
    _ZNK5creek9ExprForIn14const_optimizeEv @870
    _ZNK5creek9ExprForIn5cloneEv @871
    _ZNK5creek9ExprForIn8bytecodeERNS_10VarNameMapE @872
    _ZNK5creek9ExprForIn8is_constEv @873
    _ZNK5creek9ExprPrint14const_optimizeEv @874
    _ZNK5creek9ExprPrint5cloneEv @875
    _ZNK5creek9ExprPrint8bytecodeERNS_10VarNameMapE @876
    _ZNK5creek9ExprPrint8is_constEv @877
    _ZNK5creek9ExprThrow14const_optimizeEv @878
    _ZNK5creek9ExprThrow5cloneEv @879
    _ZNK5creek9ExprThrow8bytecodeERNS_10VarNameMapE @880
    _ZNK5creek9ExprThrow8is_constEv @881
    _ZNK5creek9ExprUnaryILNS_6OpCodeE22EXadL_ZNS_4Data3unmEvEEE14const_optimizeEv @882
    _ZNK5creek9ExprUnaryILNS_6OpCodeE22EXadL_ZNS_4Data3unmEvEEE5cloneEv @883
    _ZNK5creek9ExprUnaryILNS_6OpCodeE22EXadL_ZNS_4Data3unmEvEEE8bytecodeERNS_10VarNameMapE @884
    _ZNK5creek9ExprUnaryILNS_6OpCodeE22EXadL_ZNS_4Data3unmEvEEE8is_constEv @885
    _ZNK5creek9ExprUnaryILNS_6OpCodeE26EXadL_ZNS_4Data7bit_notEvEEE14const_optimizeEv @886
    _ZNK5creek9ExprUnaryILNS_6OpCodeE26EXadL_ZNS_4Data7bit_notEvEEE5cloneEv @887
    _ZNK5creek9ExprUnaryILNS_6OpCodeE26EXadL_ZNS_4Data7bit_notEvEEE8bytecodeERNS_10VarNameMapE @888
    _ZNK5creek9ExprUnaryILNS_6OpCodeE26EXadL_ZNS_4Data7bit_notEvEEE8is_constEv @889
    _ZNK5creek9ExprWhile14const_optimizeEv @890
    _ZNK5creek9ExprWhile5cloneEv @891
    _ZNK5creek9ExprWhile8bytecodeERNS_10VarNameMapE @892
    _ZNK5creek9ExprWhile8is_constEv @893
    _ZTIN5creek10ExprBinaryILNS_6OpCodeE16EXadL_ZNS_4Data3addEPS2_EEEE @894 DATA
    _ZTIN5creek10ExprBinaryILNS_6OpCodeE17EXadL_ZNS_4Data3subEPS2_EEEE @895 DATA
    _ZTIN5creek10ExprBinaryILNS_6OpCodeE18EXadL_ZNS_4Data3mulEPS2_EEEE @896 DATA
    _ZTIN5creek10ExprBinaryILNS_6OpCodeE19EXadL_ZNS_4Data3divEPS2_EEEE @897 DATA
    _ZTIN5creek10ExprBinaryILNS_6OpCodeE20EXadL_ZNS_4Data3modEPS2_EEEE @898 DATA
    _ZTIN5creek10ExprBinaryILNS_6OpCodeE21EXadL_ZNS_4Data3expEPS2_EEEE @899 DATA
    _ZTIN5creek10ExprBinaryILNS_6OpCodeE23EXadL_ZNS_4Data7bit_andEPS2_EEEE @900 DATA
    _ZTIN5creek10ExprBinaryILNS_6OpCodeE24EXadL_ZNS_4Data6bit_orEPS2_EEEE @901 DATA
    _ZTIN5creek10ExprBinaryILNS_6OpCodeE25EXadL_ZNS_4Data7bit_xorEPS2_EEEE @902 DATA
    _ZTIN5creek10ExprBinaryILNS_6OpCodeE27EXadL_ZNS_4Data14bit_left_shiftEPS2_EEEE @903 DATA
    _ZTIN5creek10ExprBinaryILNS_6OpCodeE28EXadL_ZNS_4Data15bit_right_shiftEPS2_EEEE @904 DATA
    _ZTIN5creek10ExprBoolOrE @905 DATA
    _ZTIN5creek10ExprNumberE @906 DATA
    _ZTIN5creek10ExprReturnE @907 DATA
    _ZTIN5creek10ExprStringE @908 DATA
    _ZTIN5creek10ExprSwitchE @909 DATA
    _ZTIN5creek10ExprVectorE @910 DATA
    _ZTIN5creek10ExpressionE @911 DATA
    _ZTIN5creek10IdentifierE @912 DATA
    _ZTIN5creek10LexicErrorE @913 DATA
    _ZTIN5creek11BadArgumentE @914 DATA
    _ZTIN5creek11ExprBoolAndE @915 DATA
    _ZTIN5creek11ExprBoolNotE @916 DATA
    _ZTIN5creek11ExprBoolXorE @917 DATA
    _ZTIN5creek11ExprBooleanE @918 DATA
    _ZTIN5creek11ExprDynFuncE @919 DATA
    _ZTIN5creek11SyntaxErrorE @920 DATA
    _ZTIN5creek12DynCFunctionE @921 DATA
    _ZTIN5creek12ExprFunctionE @922 DATA
    _ZTIN5creek12ExprIndexGetE @923 DATA
    _ZTIN5creek12ExprIndexSetE @924 DATA
    _ZTIN5creek12RuntimeErrorE @925 DATA
    _ZTIN5creek13ExprLoadLocalE @926 DATA
    _ZTIN5creek13UnexpectedEofE @927 DATA
    _ZTIN5creek13UnimplementedE @928 DATA
    _ZTIN5creek14AmbiguousTokenE @929 DATA
    _ZTIN5creek14ExprBasicBlockE @930 DATA
    _ZTIN5creek14ExprCallMethodE @931 DATA
    _ZTIN5creek14ExprIdentifierE @932 DATA
    _ZTIN5creek14ExprLoadGlobalE @933 DATA
    _ZTIN5creek14ExprStoreLocalE @934 DATA
    _ZTIN5creek14WrongArgNumberE @935 DATA
    _ZTIN5creek15BadNumberFormatE @936 DATA
    _ZTIN5creek15DynLibraryErrorE @937 DATA
    _ZTIN5creek15ExprCreateLocalE @938 DATA
    _ZTIN5creek15ExprStoreGlobalE @939 DATA
    _ZTIN5creek15UnexpectedTokenE @940 DATA
    _ZTIN5creek16ExprCreateGlobalE @941 DATA
    _ZTIN5creek16ExprVariadicCallE @942 DATA
    _ZTIN5creek17DynSymbolNotFoundE @943 DATA
    _ZTIN5creek18BadCharacterEscapeE @944 DATA
    _ZTIN5creek19UnexpectedCharacterE @945 DATA
    _ZTIN5creek22ExprVariadicCallMethodE @946 DATA
    _ZTIN5creek4DataE @947 DATA
    _ZTIN5creek4NullE @948 DATA
    _ZTIN5creek4VoidE @949 DATA
    _ZTIN5creek6ExprDoE @950 DATA
    _ZTIN5creek6ExprEQE @951 DATA
    _ZTIN5creek6ExprGEE @952 DATA
    _ZTIN5creek6ExprGTE @953 DATA
    _ZTIN5creek6ExprIfE @954 DATA
    _ZTIN5creek6ExprLEE @955 DATA
    _ZTIN5creek6ExprLTE @956 DATA
    _ZTIN5creek6ExprNEE @957 DATA
    _ZTIN5creek6NumberE @958 DATA
    _ZTIN5creek6ObjectE @959 DATA
    _ZTIN5creek6StringE @960 DATA
    _ZTIN5creek6VectorE @961 DATA
    _ZTIN5creek7BooleanE @962 DATA
    _ZTIN5creek7ExprCmpE @963 DATA
    _ZTIN5creek7ExprForE @964 DATA
    _ZTIN5creek7ExprTryE @965 DATA
    _ZTIN5creek8ExprCallE @966 DATA
    _ZTIN5creek8ExprLoopE @967 DATA
    _ZTIN5creek8ExprNullE @968 DATA
    _ZTIN5creek8ExprVoidE @969 DATA
    _ZTIN5creek8FunctionE @970 DATA
    _ZTIN5creek9CFunctionE @971 DATA
    _ZTIN5creek9ExceptionE @972 DATA
    _ZTIN5creek9ExprBreakE @973 DATA
    _ZTIN5creek9ExprClassE @974 DATA
    _ZTIN5creek9ExprConstE @975 DATA
    _ZTIN5creek9ExprForInE @976 DATA
    _ZTIN5creek9ExprPrintE @977 DATA
    _ZTIN5creek9ExprThrowE @978 DATA
    _ZTIN5creek9ExprUnaryILNS_6OpCodeE22EXadL_ZNS_4Data3unmEvEEEE @979 DATA
    _ZTIN5creek9ExprUnaryILNS_6OpCodeE26EXadL_ZNS_4Data7bit_notEvEEEE @980 DATA
    _ZTIN5creek9ExprWhileE @981 DATA
    _ZTIN5creek9UndefinedE @982 DATA
    _ZTVN5creek10ExprBinaryILNS_6OpCodeE16EXadL_ZNS_4Data3addEPS2_EEEE @983 DATA
    _ZTVN5creek10ExprBinaryILNS_6OpCodeE17EXadL_ZNS_4Data3subEPS2_EEEE @984 DATA
    _ZTVN5creek10ExprBinaryILNS_6OpCodeE18EXadL_ZNS_4Data3mulEPS2_EEEE @985 DATA
    _ZTVN5creek10ExprBinaryILNS_6OpCodeE19EXadL_ZNS_4Data3divEPS2_EEEE @986 DATA
    _ZTVN5creek10ExprBinaryILNS_6OpCodeE20EXadL_ZNS_4Data3modEPS2_EEEE @987 DATA
    _ZTVN5creek10ExprBinaryILNS_6OpCodeE21EXadL_ZNS_4Data3expEPS2_EEEE @988 DATA
    _ZTVN5creek10ExprBinaryILNS_6OpCodeE23EXadL_ZNS_4Data7bit_andEPS2_EEEE @989 DATA
    _ZTVN5creek10ExprBinaryILNS_6OpCodeE24EXadL_ZNS_4Data6bit_orEPS2_EEEE @990 DATA
    _ZTVN5creek10ExprBinaryILNS_6OpCodeE25EXadL_ZNS_4Data7bit_xorEPS2_EEEE @991 DATA
    _ZTVN5creek10ExprBinaryILNS_6OpCodeE27EXadL_ZNS_4Data14bit_left_shiftEPS2_EEEE @992 DATA
    _ZTVN5creek10ExprBinaryILNS_6OpCodeE28EXadL_ZNS_4Data15bit_right_shiftEPS2_EEEE @993 DATA
    _ZTVN5creek10ExprBoolOrE @994 DATA
    _ZTVN5creek10ExprNumberE @995 DATA
    _ZTVN5creek10ExprReturnE @996 DATA
    _ZTVN5creek10ExprStringE @997 DATA
    _ZTVN5creek10ExprSwitchE @998 DATA
    _ZTVN5creek10ExprVectorE @999 DATA
    _ZTVN5creek10ExpressionE @1000 DATA
    _ZTVN5creek10IdentifierE @1001 DATA
    _ZTVN5creek10LexicErrorE @1002 DATA
    _ZTVN5creek11BadArgumentE @1003 DATA
    _ZTVN5creek11ExprBoolAndE @1004 DATA
    _ZTVN5creek11ExprBoolNotE @1005 DATA
    _ZTVN5creek11ExprBoolXorE @1006 DATA
    _ZTVN5creek11ExprBooleanE @1007 DATA
    _ZTVN5creek11ExprDynFuncE @1008 DATA
    _ZTVN5creek11SyntaxErrorE @1009 DATA
    _ZTVN5creek12DynCFunctionE @1010 DATA
    _ZTVN5creek12ExprFunctionE @1011 DATA
    _ZTVN5creek12ExprIndexGetE @1012 DATA
    _ZTVN5creek12ExprIndexSetE @1013 DATA
    _ZTVN5creek12RuntimeErrorE @1014 DATA
    _ZTVN5creek13ExprLoadLocalE @1015 DATA
    _ZTVN5creek13UnexpectedEofE @1016 DATA
    _ZTVN5creek13UnimplementedE @1017 DATA
    _ZTVN5creek14AmbiguousTokenE @1018 DATA
    _ZTVN5creek14ExprBasicBlockE @1019 DATA
    _ZTVN5creek14ExprCallMethodE @1020 DATA
    _ZTVN5creek14ExprIdentifierE @1021 DATA
    _ZTVN5creek14ExprLoadGlobalE @1022 DATA
    _ZTVN5creek14ExprStoreLocalE @1023 DATA
    _ZTVN5creek14WrongArgNumberE @1024 DATA
    _ZTVN5creek15BadNumberFormatE @1025 DATA
    _ZTVN5creek15DynLibraryErrorE @1026 DATA
    _ZTVN5creek15ExprCreateLocalE @1027 DATA
    _ZTVN5creek15ExprStoreGlobalE @1028 DATA
    _ZTVN5creek15UnexpectedTokenE @1029 DATA
    _ZTVN5creek16ExprCreateGlobalE @1030 DATA
    _ZTVN5creek16ExprVariadicCallE @1031 DATA
    _ZTVN5creek17DynSymbolNotFoundE @1032 DATA
    _ZTVN5creek18BadCharacterEscapeE @1033 DATA
    _ZTVN5creek19UnexpectedCharacterE @1034 DATA
    _ZTVN5creek22ExprVariadicCallMethodE @1035 DATA
    _ZTVN5creek4DataE @1036 DATA
    _ZTVN5creek4NullE @1037 DATA
    _ZTVN5creek4VoidE @1038 DATA
    _ZTVN5creek6ExprDoE @1039 DATA
    _ZTVN5creek6ExprEQE @1040 DATA
    _ZTVN5creek6ExprGEE @1041 DATA
    _ZTVN5creek6ExprGTE @1042 DATA
    _ZTVN5creek6ExprIfE @1043 DATA
    _ZTVN5creek6ExprLEE @1044 DATA
    _ZTVN5creek6ExprLTE @1045 DATA
    _ZTVN5creek6ExprNEE @1046 DATA
    _ZTVN5creek6NumberE @1047 DATA
    _ZTVN5creek6ObjectE @1048 DATA
    _ZTVN5creek6StringE @1049 DATA
    _ZTVN5creek6VectorE @1050 DATA
    _ZTVN5creek7BooleanE @1051 DATA
    _ZTVN5creek7ExprCmpE @1052 DATA
    _ZTVN5creek7ExprForE @1053 DATA
    _ZTVN5creek7ExprTryE @1054 DATA
    _ZTVN5creek8ExprCallE @1055 DATA
    _ZTVN5creek8ExprLoopE @1056 DATA
    _ZTVN5creek8ExprNullE @1057 DATA
    _ZTVN5creek8ExprVoidE @1058 DATA
    _ZTVN5creek8FunctionE @1059 DATA
    _ZTVN5creek9CFunctionE @1060 DATA
    _ZTVN5creek9ExceptionE @1061 DATA
    _ZTVN5creek9ExprBreakE @1062 DATA
    _ZTVN5creek9ExprClassE @1063 DATA
    _ZTVN5creek9ExprConstE @1064 DATA
    _ZTVN5creek9ExprForInE @1065 DATA
    _ZTVN5creek9ExprPrintE @1066 DATA
    _ZTVN5creek9ExprThrowE @1067 DATA
    _ZTVN5creek9ExprUnaryILNS_6OpCodeE22EXadL_ZNS_4Data3unmEvEEEE @1068 DATA
    _ZTVN5creek9ExprUnaryILNS_6OpCodeE26EXadL_ZNS_4Data7bit_notEvEEEE @1069 DATA
    _ZTVN5creek9ExprWhileE @1070 DATA
    _ZTVN5creek9UndefinedE @1071 DATA
