EXPORTS
    _ZN5creek10ConstScope16create_local_varENS_7VarNameEPNS_4DataE @1
    _ZN5creek10ConstScope7has_varENS_7VarNameE @2
    _ZN5creek10ConstScope8find_varENS_7VarNameE @3
    _ZN5creek10ConstScopeC1ERKNS_13SharedPointerINS_6SharedEEE @4
    _ZN5creek10ConstScopeC2ERKNS_13SharedPointerINS_6SharedEEE @5
    _ZN5creek10DynFuncDef18make_dyn_func_nameERKNSt7__cxx1112basic_stringIcSt11char_traitsIcESaIcEEE @6
    _ZN5creek10DynFuncDefC1EjbSt8functionIFPNS_4DataERKNS_13SharedPointerINS_5ScopeEEERSt6vectorISt10unique_ptrIS2_St14default_deleteIS2_EESaISD_EEEE @7
    _ZN5creek10DynFuncDefC2EjbSt8functionIFPNS_4DataERKNS_13SharedPointerINS_5ScopeEEERSt6vectorISt10unique_ptrIS2_St14default_deleteIS2_EESaISD_EEEE @8
    _ZN5creek10DynLibrary12find_dyn_varERKNSt7__cxx1112basic_stringIcSt11char_traitsIcESaIcEEE @9
    _ZN5creek10DynLibrary13find_dyn_funcERKNSt7__cxx1112basic_stringIcSt11char_traitsIcESaIcEEE @10
    _ZN5creek10DynLibrary14find_dyn_classERKNSt7__cxx1112basic_stringIcSt11char_traitsIcESaIcEEE @11
    _ZN5creek10DynLibrary16find_symbol_baseERKNSt7__cxx1112basic_stringIcSt11char_traitsIcESaIcEEE @12
    _ZN5creek10DynLibraryC1ERKNSt7__cxx1112basic_stringIcSt11char_traitsIcESaIcEEE @13
    _ZN5creek10DynLibraryC2ERKNSt7__cxx1112basic_stringIcSt11char_traitsIcESaIcEEE @14
    _ZN5creek10DynLibraryD1Ev @15
    _ZN5creek10DynLibraryD2Ev @16
    _ZN5creek10ExprBinaryILNS_6OpCodeE16EXadL_ZNS_4Data3addERKNS_13SharedPointerINS_5ScopeEEEPS2_EEE4evalES7_ @17
    _ZN5creek10ExprBinaryILNS_6OpCodeE16EXadL_ZNS_4Data3addERKNS_13SharedPointerINS_5ScopeEEEPS2_EEEC1EPNS_10ExpressionESB_ @18
    _ZN5creek10ExprBinaryILNS_6OpCodeE17EXadL_ZNS_4Data3subERKNS_13SharedPointerINS_5ScopeEEEPS2_EEE4evalES7_ @19
    _ZN5creek10ExprBinaryILNS_6OpCodeE17EXadL_ZNS_4Data3subERKNS_13SharedPointerINS_5ScopeEEEPS2_EEEC1EPNS_10ExpressionESB_ @20
    _ZN5creek10ExprBinaryILNS_6OpCodeE18EXadL_ZNS_4Data3mulERKNS_13SharedPointerINS_5ScopeEEEPS2_EEE4evalES7_ @21
    _ZN5creek10ExprBinaryILNS_6OpCodeE18EXadL_ZNS_4Data3mulERKNS_13SharedPointerINS_5ScopeEEEPS2_EEEC1EPNS_10ExpressionESB_ @22
    _ZN5creek10ExprBinaryILNS_6OpCodeE19EXadL_ZNS_4Data3divERKNS_13SharedPointerINS_5ScopeEEEPS2_EEE4evalES7_ @23
    _ZN5creek10ExprBinaryILNS_6OpCodeE19EXadL_ZNS_4Data3divERKNS_13SharedPointerINS_5ScopeEEEPS2_EEEC1EPNS_10ExpressionESB_ @24
    _ZN5creek10ExprBinaryILNS_6OpCodeE20EXadL_ZNS_4Data3modERKNS_13SharedPointerINS_5ScopeEEEPS2_EEE4evalES7_ @25
    _ZN5creek10ExprBinaryILNS_6OpCodeE20EXadL_ZNS_4Data3modERKNS_13SharedPointerINS_5ScopeEEEPS2_EEEC1EPNS_10ExpressionESB_ @26
    _ZN5creek10ExprBinaryILNS_6OpCodeE21EXadL_ZNS_4Data3expERKNS_13SharedPointerINS_5ScopeEEEPS2_EEE4evalES7_ @27
    _ZN5creek10ExprBinaryILNS_6OpCodeE21EXadL_ZNS_4Data3expERKNS_13SharedPointerINS_5ScopeEEEPS2_EEEC1EPNS_10ExpressionESB_ @28
    _ZN5creek10ExprBinaryILNS_6OpCodeE23EXadL_ZNS_4Data7bit_andERKNS_13SharedPointerINS_5ScopeEEEPS2_EEE4evalES7_ @29
    _ZN5creek10ExprBinaryILNS_6OpCodeE23EXadL_ZNS_4Data7bit_andERKNS_13SharedPointerINS_5ScopeEEEPS2_EEEC1EPNS_10ExpressionESB_ @30
    _ZN5creek10ExprBinaryILNS_6OpCodeE24EXadL_ZNS_4Data6bit_orERKNS_13SharedPointerINS_5ScopeEEEPS2_EEE4evalES7_ @31
    _ZN5creek10ExprBinaryILNS_6OpCodeE24EXadL_ZNS_4Data6bit_orERKNS_13SharedPointerINS_5ScopeEEEPS2_EEEC1EPNS_10ExpressionESB_ @32
    _ZN5creek10ExprBinaryILNS_6OpCodeE25EXadL_ZNS_4Data7bit_xorERKNS_13SharedPointerINS_5ScopeEEEPS2_EEE4evalES7_ @33
    _ZN5creek10ExprBinaryILNS_6OpCodeE25EXadL_ZNS_4Data7bit_xorERKNS_13SharedPointerINS_5ScopeEEEPS2_EEEC1EPNS_10ExpressionESB_ @34
    _ZN5creek10ExprBinaryILNS_6OpCodeE27EXadL_ZNS_4Data14bit_left_shiftERKNS_13SharedPointerINS_5ScopeEEEPS2_EEE4evalES7_ @35
    _ZN5creek10ExprBinaryILNS_6OpCodeE27EXadL_ZNS_4Data14bit_left_shiftERKNS_13SharedPointerINS_5ScopeEEEPS2_EEEC1EPNS_10ExpressionESB_ @36
    _ZN5creek10ExprBinaryILNS_6OpCodeE28EXadL_ZNS_4Data15bit_right_shiftERKNS_13SharedPointerINS_5ScopeEEEPS2_EEE4evalES7_ @37
    _ZN5creek10ExprBinaryILNS_6OpCodeE28EXadL_ZNS_4Data15bit_right_shiftERKNS_13SharedPointerINS_5ScopeEEEPS2_EEEC1EPNS_10ExpressionESB_ @38
    _ZN5creek10ExprBoolOr4evalERKNS_13SharedPointerINS_5ScopeEEE @39
    _ZN5creek10ExprBoolOrC1EPNS_10ExpressionES2_ @40
    _ZN5creek10ExprBoolOrC2EPNS_10ExpressionES2_ @41
    _ZN5creek10ExprDynVar4evalERKNS_13SharedPointerINS_5ScopeEEE @42
    _ZN5creek10ExprDynVarC1ERKNSt7__cxx1112basic_stringIcSt11char_traitsIcESaIcEEENS_7VarNameE @43
    _ZN5creek10ExprDynVarC2ERKNSt7__cxx1112basic_stringIcSt11char_traitsIcESaIcEEENS_7VarNameE @44
    _ZN5creek10ExprModule4evalERKNS_13SharedPointerINS_5ScopeEEE @45
    _ZN5creek10ExprModuleC1ENS_7VarNameEPNS_10ExpressionE @46
    _ZN5creek10ExprModuleC2ENS_7VarNameEPNS_10ExpressionE @47
    _ZN5creek10ExprNumber4evalERKNS_13SharedPointerINS_5ScopeEEE @48
    _ZN5creek10ExprNumberC1Ed @49
    _ZN5creek10ExprNumberC2Ed @50
    _ZN5creek10ExprReturn4evalERKNS_13SharedPointerINS_5ScopeEEE @51
    _ZN5creek10ExprReturnC1EPNS_10ExpressionE @52
    _ZN5creek10ExprReturnC2EPNS_10ExpressionE @53
    _ZN5creek10ExprString4evalERKNS_13SharedPointerINS_5ScopeEEE @54
    _ZN5creek10ExprStringC1ENSt7__cxx1112basic_stringIcSt11char_traitsIcESaIcEEE @55
    _ZN5creek10ExprStringC2ENSt7__cxx1112basic_stringIcSt11char_traitsIcESaIcEEE @56
    _ZN5creek10ExprSwitch4evalERKNS_13SharedPointerINS_5ScopeEEE @57
    _ZN5creek10ExprSwitchC1EPNS_10ExpressionERSt6vectorINS0_10CaseBranchESaIS4_EES2_ @58
    _ZN5creek10ExprSwitchC2EPNS_10ExpressionERSt6vectorINS0_10CaseBranchESaIS4_EES2_ @59
    _ZN5creek10ExprVector4evalERKNS_13SharedPointerINS_5ScopeEEE @60
    _ZN5creek10ExprVectorC1ERKSt6vectorIPNS_10ExpressionESaIS3_EE @61
    _ZN5creek10ExprVectorC2ERKSt6vectorIPNS_10ExpressionESaIS3_EE @62
    _ZN5creek10Identifier3cmpERKNS_13SharedPointerINS_5ScopeEEEPNS_4DataE @63
    _ZN5creek10IdentifierC1ENS_7VarNameE @64
    _ZN5creek10IdentifierC2ENS_7VarNameE @65
    _ZN5creek10LexicErrorC1Eii @66
    _ZN5creek10LexicErrorC2Eii @67
    _ZN5creek10LocalScope16create_local_varENS_7VarNameEPNS_4DataE @68
    _ZN5creek10LocalScope4varsEv @69
    _ZN5creek10LocalScope7has_varENS_7VarNameE @70
    _ZN5creek10LocalScope8find_varENS_7VarNameE @71
    _ZN5creek10LocalScopeC1ERKNS_13SharedPointerINS_6SharedEEE @72
    _ZN5creek10LocalScopeC1ERKNS_13SharedPointerINS_6SharedEEERKNS1_INS_5ScopeEEE @73
    _ZN5creek10LocalScopeC1ERKNS_13SharedPointerINS_6SharedEEERKNS1_INS_5ScopeEEERKNS1_INS_11GlobalScopeEEERKSt10shared_ptrINS6_11ReturnPointEERKSE_INS6_10BreakPointEE @74
    _ZN5creek10LocalScopeC1ERKNS_13SharedPointerINS_6SharedEEERKNS1_INS_5ScopeEEERKSt10shared_ptrINS6_11ReturnPointEERKSA_INS6_10BreakPointEE @75
    _ZN5creek10LocalScopeC2ERKNS_13SharedPointerINS_6SharedEEE @76
    _ZN5creek10LocalScopeC2ERKNS_13SharedPointerINS_6SharedEEERKNS1_INS_5ScopeEEE @77
    _ZN5creek10LocalScopeC2ERKNS_13SharedPointerINS_6SharedEEERKNS1_INS_5ScopeEEERKNS1_INS_11GlobalScopeEEERKSt10shared_ptrINS6_11ReturnPointEERKSE_INS6_10BreakPointEE @78
    _ZN5creek10LocalScopeC2ERKNS_13SharedPointerINS_6SharedEEERKNS1_INS_5ScopeEEERKSt10shared_ptrINS6_11ReturnPointEERKSA_INS6_10BreakPointEE @79
    _ZN5creek10VarNameMap12id_from_nameERKNSt7__cxx1112basic_stringIcSt11char_traitsIcESaIcEEE @80
    _ZN5creek10VarNameMap13register_nameEjRKNSt7__cxx1112basic_stringIcSt11char_traitsIcESaIcEEE @81
    _ZN5creek10VarNameMap3mapB5cxx11Ev @82
    _ZN5creek11BadArgumentC1EPKNS_10ExpressionERKNSt7__cxx1112basic_stringIcSt11char_traitsIcESaIcEEE @83
    _ZN5creek11BadArgumentC2EPKNS_10ExpressionERKNSt7__cxx1112basic_stringIcSt11char_traitsIcESaIcEEE @84
    _ZN5creek11DynClassDef19make_dyn_class_nameERKNSt7__cxx1112basic_stringIcSt11char_traitsIcESaIcEEE @85
    _ZN5creek11DynClassDefC1ERKNSt7__cxx1112basic_stringIcSt11char_traitsIcESaIcEEERNS_8VariableERSt3mapIS6_NS0_4AttrESt4lessIS6_ESaISt4pairIS7_SC_EEERSB_IS6_St10shared_ptrINS_10DynFuncDefEESE_SaISF_IS7_SM_EEERSB_IS6_SK_INS_4DataEESE_SaISF_IS7_SS_EEE @86
    _ZN5creek11DynClassDefC2ERKNSt7__cxx1112basic_stringIcSt11char_traitsIcESaIcEEERNS_8VariableERSt3mapIS6_NS0_4AttrESt4lessIS6_ESaISt4pairIS7_SC_EEERSB_IS6_St10shared_ptrINS_10DynFuncDefEESE_SaISF_IS7_SM_EEERSB_IS6_SK_INS_4DataEESE_SaISF_IS7_SS_EEE @87
    _ZN5creek11ExprAttrGet4evalERKNS_13SharedPointerINS_5ScopeEEE @88
    _ZN5creek11ExprAttrGetC1EPNS_10ExpressionENS_7VarNameE @89
    _ZN5creek11ExprAttrGetC2EPNS_10ExpressionENS_7VarNameE @90
    _ZN5creek11ExprAttrSet4evalERKNS_13SharedPointerINS_5ScopeEEE @91
    _ZN5creek11ExprAttrSetC1EPNS_10ExpressionENS_7VarNameES2_ @92
    _ZN5creek11ExprAttrSetC2EPNS_10ExpressionENS_7VarNameES2_ @93
    _ZN5creek11ExprBoolAnd4evalERKNS_13SharedPointerINS_5ScopeEEE @94
    _ZN5creek11ExprBoolAndC1EPNS_10ExpressionES2_ @95
    _ZN5creek11ExprBoolAndC2EPNS_10ExpressionES2_ @96
    _ZN5creek11ExprBoolNot4evalERKNS_13SharedPointerINS_5ScopeEEE @97
    _ZN5creek11ExprBoolNotC1EPNS_10ExpressionE @98
    _ZN5creek11ExprBoolNotC2EPNS_10ExpressionE @99
    _ZN5creek11ExprBoolXor4evalERKNS_13SharedPointerINS_5ScopeEEE @100
    _ZN5creek11ExprBoolXorC1EPNS_10ExpressionES2_ @101
    _ZN5creek11ExprBoolXorC2EPNS_10ExpressionES2_ @102
    _ZN5creek11ExprBoolean4evalERKNS_13SharedPointerINS_5ScopeEEE @103
    _ZN5creek11ExprBooleanC1Eb @104
    _ZN5creek11ExprBooleanC2Eb @105
    _ZN5creek11ExprDynFunc4evalERKNS_13SharedPointerINS_5ScopeEEE @106
    _ZN5creek11ExprDynFuncC1ERKSt6vectorINS_7VarNameESaIS2_EEbRKNSt7__cxx1112basic_stringIcSt11char_traitsIcESaIcEEESE_ @107
    _ZN5creek11ExprDynFuncC2ERKSt6vectorINS_7VarNameESaIS2_EEbRKNSt7__cxx1112basic_stringIcSt11char_traitsIcESaIcEEESE_ @108
    _ZN5creek11GlobalScope20spread_garbage_traceEv @109
    _ZN5creek11GlobalScopeC1ERKNS_13SharedPointerINS_6SharedEEE @110
    _ZN5creek11GlobalScopeC2ERKNS_13SharedPointerINS_6SharedEEE @111
    _ZN5creek11Interpreter11parse_classERNS0_13ParseIteratorE @112
    _ZN5creek11Interpreter12is_operationERNS0_13ParseIteratorE @113
    _ZN5creek11Interpreter12parse_moduleERNS0_13ParseIteratorE @114
    _ZN5creek11Interpreter13check_not_eofERNS0_13ParseIteratorE @115
    _ZN5creek11Interpreter13token_regexesB5cxx11E @116 DATA
    _ZN5creek11Interpreter14parse_do_blockERNS0_13ParseIteratorE @117
    _ZN5creek11Interpreter14parse_functionERNS0_13ParseIteratorE @118
    _ZN5creek11Interpreter14parse_if_blockERNS0_13ParseIteratorE @119
    _ZN5creek11Interpreter15parse_for_blockERNS0_13ParseIteratorE @120
    _ZN5creek11Interpreter15parse_operationERNS0_13ParseIteratorE @121
    _ZN5creek11Interpreter15parse_parameterERNS0_13ParseIteratorE @122
    _ZN5creek11Interpreter15parse_statementERNS0_13ParseIteratorE @123
    _ZN5creek11Interpreter15parse_try_blockERNS0_13ParseIteratorE @124
    _ZN5creek11Interpreter16check_token_typeERNS0_13ParseIteratorERKSt3setINS_9TokenTypeESt4lessIS4_ESaIS4_EE @125
    _ZN5creek11Interpreter16parse_block_bodyERNS0_13ParseIteratorE @126
    _ZN5creek11Interpreter16parse_loop_blockERNS0_13ParseIteratorE @127
    _ZN5creek11Interpreter17parse_while_blockERNS0_13ParseIteratorE @128
    _ZN5creek11Interpreter18parse_switch_blockERNS0_13ParseIteratorE @129
    _ZN5creek11Interpreter4loadERKNSt7__cxx1112basic_stringIcSt11char_traitsIcESaIcEEE @130
    _ZN5creek11Interpreter4scanERKNSt7__cxx1112basic_stringIcSt11char_traitsIcESaIcEEE @131
    _ZN5creek11Interpreter5parseERKSt6vectorINS_5TokenESaIS2_EE @132
    _ZN5creek11Interpreter8synonymsB5cxx11E @133 DATA
    _ZN5creek11Interpreter9load_codeERKNSt7__cxx1112basic_stringIcSt11char_traitsIcESaIcEEE @134
    _ZN5creek11Interpreter9load_fileERKNSt7__cxx1112basic_stringIcSt11char_traitsIcESaIcEEE @135
    _ZN5creek11Interpreter9operatorsE @136 DATA
    _ZN5creek11Interpreter9parse_varERNS0_13ParseIteratorE @137
    _ZN5creek11InterpreterC1Ev @138
    _ZN5creek11InterpreterC2Ev @139
    _ZN5creek11ObjectScope16create_local_varENS_7VarNameEPNS_4DataE @140
    _ZN5creek11ObjectScope7has_varENS_7VarNameE @141
    _ZN5creek11ObjectScope8find_varENS_7VarNameE @142
    _ZN5creek11ObjectScopeC1ERKNS_13SharedPointerINS_6SharedEEERKNS1_INS_5ScopeEEEPNS_6ObjectE @143
    _ZN5creek11ObjectScopeC1ERKNS_13SharedPointerINS_6SharedEEERKNS1_INS_5ScopeEEERKSt10shared_ptrINS6_11ReturnPointEERKSA_INS6_10BreakPointEEPNS_6ObjectE @144
    _ZN5creek11ObjectScopeC2ERKNS_13SharedPointerINS_6SharedEEERKNS1_INS_5ScopeEEEPNS_6ObjectE @145
    _ZN5creek11ObjectScopeC2ERKNS_13SharedPointerINS_6SharedEEERKNS1_INS_5ScopeEEERKSt10shared_ptrINS6_11ReturnPointEERKSA_INS6_10BreakPointEEPNS_6ObjectE @146
    _ZN5creek11SyntaxErrorC1ERKNS_5TokenE @147
    _ZN5creek11SyntaxErrorC1ERKNS_5TokenERKNSt7__cxx1112basic_stringIcSt11char_traitsIcESaIcEEE @148
    _ZN5creek11SyntaxErrorC2ERKNS_5TokenE @149
    _ZN5creek11SyntaxErrorC2ERKNS_5TokenERKNSt7__cxx1112basic_stringIcSt11char_traitsIcESaIcEEE @150
    _ZN5creek11WeakPointerINS_18GarbageCollectableEEC1ERKS2_ @151
    _ZN5creek11WeakPointerINS_6SharedEE3ptrEv @152
    _ZN5creek11WeakPointerINS_6SharedEEC1ERKNS_13SharedPointerIS1_EE @153
    _ZN5creek11WeakPointerINS_6SharedEEC1ERKS2_ @154
    _ZN5creek11escape_charB5cxx11Ec @155
    _ZN5creek12DynCFunctionC1ERKNS_13SharedPointerINS_5ScopeEEERKSt6vectorINS_7VarNameESaIS7_EEbRKNSt7__cxx1112basic_stringIcSt11char_traitsIcESaIcEEESJ_ @156
    _ZN5creek12DynCFunctionC1ERKNS_13SharedPointerINS_5ScopeEEERKSt6vectorINS_7VarNameESaIS7_EEbRKSt10shared_ptrINS_10DynLibraryEERKNS_10DynFuncDefE @157
    _ZN5creek12DynCFunctionC1ERKNS_13SharedPointerINS_5ScopeEEERKSt6vectorINS_7VarNameESaIS7_EEbRKSt10shared_ptrINS_10DynLibraryEERKNSt7__cxx1112basic_stringIcSt11char_traitsIcESaIcEEE @158
    _ZN5creek12DynCFunctionC1ERKSt10shared_ptrINS_10DynLibraryEERKS1_INS_9CFunction10DefinitionEE @159
    _ZN5creek12DynCFunctionC2ERKNS_13SharedPointerINS_5ScopeEEERKSt6vectorINS_7VarNameESaIS7_EEbRKNSt7__cxx1112basic_stringIcSt11char_traitsIcESaIcEEESJ_ @160
    _ZN5creek12DynCFunctionC2ERKNS_13SharedPointerINS_5ScopeEEERKSt6vectorINS_7VarNameESaIS7_EEbRKSt10shared_ptrINS_10DynLibraryEERKNS_10DynFuncDefE @161
    _ZN5creek12DynCFunctionC2ERKNS_13SharedPointerINS_5ScopeEEERKSt6vectorINS_7VarNameESaIS7_EEbRKSt10shared_ptrINS_10DynLibraryEERKNSt7__cxx1112basic_stringIcSt11char_traitsIcESaIcEEE @162
    _ZN5creek12DynCFunctionC2ERKSt10shared_ptrINS_10DynLibraryEERKS1_INS_9CFunction10DefinitionEE @163
    _ZN5creek12ExprDynClass4evalERKNS_13SharedPointerINS_5ScopeEEE @164
    _ZN5creek12ExprDynClassC1ENS_7VarNameERSt6vectorINS0_9MethodDefESaIS3_EERS2_INS0_9StaticDefESaIS7_EERKNSt7__cxx1112basic_stringIcSt11char_traitsIcESaIcEEE @165
    _ZN5creek12ExprDynClassC2ENS_7VarNameERSt6vectorINS0_9MethodDefESaIS3_EERS2_INS0_9StaticDefESaIS7_EERKNSt7__cxx1112basic_stringIcSt11char_traitsIcESaIcEEE @166
    _ZN5creek12ExprFunction4evalERKNS_13SharedPointerINS_5ScopeEEE @167
    _ZN5creek12ExprFunctionC1ERKSt6vectorINS_7VarNameESaIS2_EEbPNS_10ExpressionE @168
    _ZN5creek12ExprFunctionC1ERKSt6vectorINS_7VarNameESaIS2_EEbSt10shared_ptrINS_10ExpressionEE @169
    _ZN5creek12ExprFunctionC2ERKSt6vectorINS_7VarNameESaIS2_EEbPNS_10ExpressionE @170
    _ZN5creek12ExprFunctionC2ERKSt6vectorINS_7VarNameESaIS2_EEbSt10shared_ptrINS_10ExpressionEE @171
    _ZN5creek12ExprIndexGet4evalERKNS_13SharedPointerINS_5ScopeEEE @172
    _ZN5creek12ExprIndexGetC1EPNS_10ExpressionES2_ @173
    _ZN5creek12ExprIndexGetC2EPNS_10ExpressionES2_ @174
    _ZN5creek12ExprIndexSet4evalERKNS_13SharedPointerINS_5ScopeEEE @175
    _ZN5creek12ExprIndexSetC1EPNS_10ExpressionES2_S2_ @176
    _ZN5creek12ExprIndexSetC2EPNS_10ExpressionES2_S2_ @177
    _ZN5creek12RuntimeErrorC1EPKNS_10ExpressionE @178
    _ZN5creek12RuntimeErrorC2EPKNS_10ExpressionE @179
    _ZN5creek12clear_screenEv @180
    _ZN5creek13ExprLoadLocal4evalERKNS_13SharedPointerINS_5ScopeEEE @181
    _ZN5creek13ExprLoadLocalC1ENS_7VarNameE @182
    _ZN5creek13ExprLoadLocalC2ENS_7VarNameE @183
    _ZN5creek13SharedPointerINS_10ConstScopeEEC1Ev @184
    _ZN5creek13SharedPointerINS_10LocalScopeEEC1ERKS2_ @185
    _ZN5creek13SharedPointerINS_10LocalScopeEEC1Ev @186
    _ZN5creek13SharedPointerINS_11GlobalScopeEEC1EDn @187
    _ZN5creek13SharedPointerINS_11GlobalScopeEEC1ERKS2_ @188
    _ZN5creek13SharedPointerINS_11ObjectScopeEEC1Ev @189
    _ZN5creek13SharedPointerINS_18GarbageCollectableEE3ptrEv @190
    _ZN5creek13SharedPointerINS_18GarbageCollectableEE7destroyEv @191
    _ZN5creek13SharedPointerINS_18GarbageCollectableEEC1ERKSt10shared_ptrISt10unique_ptrINS_6SharedESt14default_deleteIS5_EEE @192
    _ZN5creek13SharedPointerINS_5ScopeEEC1EDn @193
    _ZN5creek13SharedPointerINS_5ScopeEEC1EOS2_ @194
    _ZN5creek13SharedPointerINS_5ScopeEEC1ERKS2_ @195
    _ZN5creek13SharedPointerINS_6Object10DefinitionEEC1ERKS3_ @196
    _ZN5creek13SharedPointerINS_6Object10DefinitionEEC1Ev @197
    _ZN5creek13UnexpectedEofC1ERKNS_5TokenE @198
    _ZN5creek13UnexpectedEofC2ERKNS_5TokenE @199
    _ZN5creek13UnimplementedC1ERKNSt7__cxx1112basic_stringIcSt11char_traitsIcESaIcEEE @200
    _ZN5creek13UnimplementedC2ERKNSt7__cxx1112basic_stringIcSt11char_traitsIcESaIcEEE @201
    _ZN5creek13escape_stringERKNSt7__cxx1112basic_stringIcSt11char_traitsIcESaIcEEE @202
    _ZN5creek13op_code_namesB5cxx11E @203 DATA
    _ZN5creek13unescape_charERKNSt7__cxx1112basic_stringIcSt11char_traitsIcESaIcEEEjPj @204
    _ZN5creek14AmbiguousTokenC1ERKNS_5TokenERKSt6vectorINS_9TokenTypeESaIS5_EE @205
    _ZN5creek14AmbiguousTokenC2ERKNS_5TokenERKSt6vectorINS_9TokenTypeESaIS5_EE @206
    _ZN5creek14ExprBasicBlock4evalERKNS_13SharedPointerINS_5ScopeEEE @207
    _ZN5creek14ExprBasicBlockC1ERKSt6vectorIPNS_10ExpressionESaIS3_EE @208
    _ZN5creek14ExprBasicBlockC2ERKSt6vectorIPNS_10ExpressionESaIS3_EE @209
    _ZN5creek14ExprCallMethod4evalERKNS_13SharedPointerINS_5ScopeEEE @210
    _ZN5creek14ExprCallMethodC1EPNS_10ExpressionENS_7VarNameERKSt6vectorIS2_SaIS2_EE @211
    _ZN5creek14ExprCallMethodC2EPNS_10ExpressionENS_7VarNameERKSt6vectorIS2_SaIS2_EE @212
    _ZN5creek14ExprIdentifier4evalERKNS_13SharedPointerINS_5ScopeEEE @213
    _ZN5creek14ExprIdentifierC1ENS_7VarNameE @214
    _ZN5creek14ExprIdentifierC2ENS_7VarNameE @215
    _ZN5creek14ExprLoadGlobal4evalERKNS_13SharedPointerINS_5ScopeEEE @216
    _ZN5creek14ExprLoadGlobalC1ENS_7VarNameE @217
    _ZN5creek14ExprLoadGlobalC2ENS_7VarNameE @218
    _ZN5creek14ExprStoreLocal4evalERKNS_13SharedPointerINS_5ScopeEEE @219
    _ZN5creek14ExprStoreLocalC1ENS_7VarNameEPNS_10ExpressionE @220
    _ZN5creek14ExprStoreLocalC2ENS_7VarNameEPNS_10ExpressionE @221
    _ZN5creek14WrongArgNumberC1Eii @222
    _ZN5creek14WrongArgNumberC2Eii @223
    _ZN5creek15BadNumberFormatC1Eii @224
    _ZN5creek15BadNumberFormatC2Eii @225
    _ZN5creek15DynLibraryErrorC1ERKNSt7__cxx1112basic_stringIcSt11char_traitsIcESaIcEEE @226
    _ZN5creek15DynLibraryErrorC2ERKNSt7__cxx1112basic_stringIcSt11char_traitsIcESaIcEEE @227
    _ZN5creek15ExprCreateLocal4evalERKNS_13SharedPointerINS_5ScopeEEE @228
    _ZN5creek15ExprCreateLocalC1ENS_7VarNameEPNS_10ExpressionE @229
    _ZN5creek15ExprCreateLocalC2ENS_7VarNameEPNS_10ExpressionE @230
    _ZN5creek15ExprStoreGlobal4evalERKNS_13SharedPointerINS_5ScopeEEE @231
    _ZN5creek15ExprStoreGlobalC1ENS_7VarNameEPNS_10ExpressionE @232
    _ZN5creek15ExprStoreGlobalC2ENS_7VarNameEPNS_10ExpressionE @233
    _ZN5creek15UnexpectedTokenC1ERKNS_5TokenE @234
    _ZN5creek15UnexpectedTokenC1ERKNS_5TokenERKSt3setINS_9TokenTypeESt4lessIS5_ESaIS5_EE @235
    _ZN5creek15UnexpectedTokenC2ERKNS_5TokenE @236
    _ZN5creek15UnexpectedTokenC2ERKNS_5TokenERKSt3setINS_9TokenTypeESt4lessIS5_ESaIS5_EE @237
    _ZN5creek15unescape_stringERKNSt7__cxx1112basic_stringIcSt11char_traitsIcESaIcEEE @238
    _ZN5creek16ExprCreateGlobal4evalERKNS_13SharedPointerINS_5ScopeEEE @239
    _ZN5creek16ExprCreateGlobalC1ENS_7VarNameEPNS_10ExpressionE @240
    _ZN5creek16ExprCreateGlobalC2ENS_7VarNameEPNS_10ExpressionE @241
    _ZN5creek16ExprVariadicCall4evalERKNS_13SharedPointerINS_5ScopeEEE @242
    _ZN5creek16ExprVariadicCallC1EPNS_10ExpressionERKSt6vectorIS2_SaIS2_EES2_ @243
    _ZN5creek16ExprVariadicCallC2EPNS_10ExpressionERKSt6vectorIS2_SaIS2_EES2_ @244
    _ZN5creek16GarbageCollector15collect_garbageEv @245
    _ZN5creek16GarbageCollector17add_to_collectionERKNS_11WeakPointerINS_18GarbageCollectableEEE @246
    _ZN5creek16GarbageCollector8instanceE @247 DATA
    _ZN5creek16GarbageCollectorC1Ev @248
    _ZN5creek16GarbageCollectorC2Ev @249
    _ZN5creek17DynSymbolNotFoundC1ERKNSt7__cxx1112basic_stringIcSt11char_traitsIcESaIcEEE @250
    _ZN5creek17DynSymbolNotFoundC2ERKNSt7__cxx1112basic_stringIcSt11char_traitsIcESaIcEEE @251
    _ZN5creek18BadCharacterEscapeC1ERKNSt7__cxx1112basic_stringIcSt11char_traitsIcESaIcEEEj @252
    _ZN5creek18BadCharacterEscapeC2ERKNSt7__cxx1112basic_stringIcSt11char_traitsIcESaIcEEEj @253
    _ZN5creek18GarbageCollectable13garbage_traceEv @254
    _ZN5creek18GarbageCollectableC1ERKNS_13SharedPointerINS_6SharedEEE @255
    _ZN5creek18GarbageCollectableC2ERKNS_13SharedPointerINS_6SharedEEE @256
    _ZN5creek19BytecodeInterpreter12magic_numberB5cxx11E @257 DATA
    _ZN5creek19BytecodeInterpreter13load_bytecodeERNS_8BytecodeE @258
    _ZN5creek19BytecodeInterpreter14parse_var_nameERNS_8BytecodeERKNS_10VarNameMapE @259
    _ZN5creek19BytecodeInterpreter16parse_expressionERNS_8BytecodeERKNS_10VarNameMapE @260
    _ZN5creek19BytecodeInterpreter4loadERKNSt7__cxx1112basic_stringIcSt11char_traitsIcESaIcEEE @261
    _ZN5creek19BytecodeInterpreter5parseERNS_8BytecodeE @262
    _ZN5creek19BytecodeInterpreter9load_fileERKNSt7__cxx1112basic_stringIcSt11char_traitsIcESaIcEEE @263
    _ZN5creek19BytecodeInterpreter9save_fileERKNSt7__cxx1112basic_stringIcSt11char_traitsIcESaIcEEEPKNS_10ExpressionE @264
    _ZN5creek19BytecodeInterpreterC1Ev @265
    _ZN5creek19BytecodeInterpreterC2Ev @266
    _ZN5creek19InterpreterOperatorC1ERKNSt7__cxx1112basic_stringIcSt11char_traitsIcESaIcEEEi @267
    _ZN5creek19InterpreterOperatorC2ERKNSt7__cxx1112basic_stringIcSt11char_traitsIcESaIcEEEi @268
    _ZN5creek19UnexpectedCharacterC1ERKNS_5TokenE @269
    _ZN5creek19UnexpectedCharacterC2ERKNS_5TokenE @270
    _ZN5creek21load_standard_libraryERKNS_13SharedPointerINS_5ScopeEEE @271
    _ZN5creek22ExprVariadicCallMethod4evalERKNS_13SharedPointerINS_5ScopeEEE @272
    _ZN5creek22ExprVariadicCallMethodC1EPNS_10ExpressionENS_7VarNameERKSt6vectorIS2_SaIS2_EES2_ @273
    _ZN5creek22ExprVariadicCallMethodC2EPNS_10ExpressionENS_7VarNameERKSt6vectorIS2_SaIS2_EES2_ @274
    _ZN5creek3Map4attrERKNS_13SharedPointerINS_5ScopeEEENS_7VarNameE @275
    _ZN5creek3Map4attrERKNS_13SharedPointerINS_5ScopeEEENS_7VarNameEPNS_4DataE @276
    _ZN5creek3Map5indexERKNS_13SharedPointerINS_5ScopeEEEPNS_4DataE @277
    _ZN5creek3Map5indexERKNS_13SharedPointerINS_5ScopeEEEPNS_4DataES7_ @278
    _ZN5creek3MapC1ERKSt10shared_ptrISt3mapINS0_3KeyENS_8VariableESt4lessIS3_ESaISt4pairIKS3_S4_EEEE @279
    _ZN5creek3MapC2ERKSt10shared_ptrISt3mapINS0_3KeyENS_8VariableESt4lessIS3_ESaISt4pairIKS3_S4_EEEE @280
    _ZN5creek4Data13garbage_traceEv @281
    _ZN5creek4Data14bit_left_shiftERKNS_13SharedPointerINS_5ScopeEEEPS0_ @282
    _ZN5creek4Data15bit_right_shiftERKNS_13SharedPointerINS_5ScopeEEEPS0_ @283
    _ZN5creek4Data3addERKNS_13SharedPointerINS_5ScopeEEEPS0_ @284
    _ZN5creek4Data3cmpERKNS_13SharedPointerINS_5ScopeEEEPS0_ @285
    _ZN5creek4Data3divERKNS_13SharedPointerINS_5ScopeEEEPS0_ @286
    _ZN5creek4Data3expERKNS_13SharedPointerINS_5ScopeEEEPS0_ @287
    _ZN5creek4Data3modERKNS_13SharedPointerINS_5ScopeEEEPS0_ @288
    _ZN5creek4Data3mulERKNS_13SharedPointerINS_5ScopeEEEPS0_ @289
    _ZN5creek4Data3subERKNS_13SharedPointerINS_5ScopeEEEPS0_ @290
    _ZN5creek4Data3unmERKNS_13SharedPointerINS_5ScopeEEE @291
    _ZN5creek4Data4attrERKNS_13SharedPointerINS_5ScopeEEENS_7VarNameE @292
    _ZN5creek4Data4attrERKNS_13SharedPointerINS_5ScopeEEENS_7VarNameEPS0_ @293
    _ZN5creek4Data4callERKNS_13SharedPointerINS_5ScopeEEERSt6vectorISt10unique_ptrIS0_St14default_deleteIS0_EESaISA_EE @294
    _ZN5creek4Data5indexERKNS_13SharedPointerINS_5ScopeEEEPS0_ @295
    _ZN5creek4Data5indexERKNS_13SharedPointerINS_5ScopeEEEPS0_S6_ @296
    _ZN5creek4Data6bit_orERKNS_13SharedPointerINS_5ScopeEEEPS0_ @297
    _ZN5creek4Data7bit_andERKNS_13SharedPointerINS_5ScopeEEEPS0_ @298
    _ZN5creek4Data7bit_notERKNS_13SharedPointerINS_5ScopeEEE @299
    _ZN5creek4Data7bit_xorERKNS_13SharedPointerINS_5ScopeEEEPS0_ @300
    _ZN5creek4DataC1Ev @301
    _ZN5creek4DataC2Ev @302
    _ZN5creek4DataD0Ev @303
    _ZN5creek4DataD1Ev @304
    _ZN5creek4DataD2Ev @305
    _ZN5creek4Null3cmpERKNS_13SharedPointerINS_5ScopeEEEPNS_4DataE @306
    _ZN5creek4NullC1Ev @307
    _ZN5creek4NullC2Ev @308
    _ZN5creek5Scope6globalEv @309
    _ZN5creek5Scope6parentEv @310
    _ZN5creek5ScopeC1ERKNS_13SharedPointerINS_6SharedEEERKNS1_IS0_EE @311
    _ZN5creek5ScopeC1ERKNS_13SharedPointerINS_6SharedEEERKNS1_IS0_EERKNS1_INS_11GlobalScopeEEERKSt10shared_ptrINS0_11ReturnPointEERKSD_INS0_10BreakPointEE @312
    _ZN5creek5ScopeC1ERKNS_13SharedPointerINS_6SharedEEERKNS1_IS0_EERKSt10shared_ptrINS0_11ReturnPointEERKS9_INS0_10BreakPointEE @313
    _ZN5creek5ScopeC2ERKNS_13SharedPointerINS_6SharedEEERKNS1_IS0_EE @314
    _ZN5creek5ScopeC2ERKNS_13SharedPointerINS_6SharedEEERKNS1_IS0_EERKNS1_INS_11GlobalScopeEEERKSt10shared_ptrINS0_11ReturnPointEERKSD_INS0_10BreakPointEE @315
    _ZN5creek5ScopeC2ERKNS_13SharedPointerINS_6SharedEEERKNS1_IS0_EERKSt10shared_ptrINS0_11ReturnPointEERKS9_INS0_10BreakPointEE @316
    _ZN5creek5Token10type_namesB5cxx11E @317 DATA
    _ZN5creek5TokenC1ENS_9TokenTypeERKNSt7__cxx1112basic_stringIcSt11char_traitsIcESaIcEEEii @318
    _ZN5creek5TokenC1EOS0_ @319
    _ZN5creek5TokenC1ERKS0_ @320
    _ZN5creek5TokenC2ENS_9TokenTypeERKNSt7__cxx1112basic_stringIcSt11char_traitsIcESaIcEEEii @321
    _ZN5creek5TokenC2EOS0_ @322
    _ZN5creek5TokenC2ERKS0_ @323
    _ZN5creek6Endian14bytes_to_sint8ERKNSt7__cxx1112basic_stringIcSt11char_traitsIcESaIcEEE @324
    _ZN5creek6Endian14sint8_to_bytesB5cxx11Ea @325
    _ZN5creek6Endian15bytes_to_sint16ERKNSt7__cxx1112basic_stringIcSt11char_traitsIcESaIcEEE @326
    _ZN5creek6Endian15bytes_to_sint32ERKNSt7__cxx1112basic_stringIcSt11char_traitsIcESaIcEEE @327
    _ZN5creek6Endian15bytes_to_sint64ERKNSt7__cxx1112basic_stringIcSt11char_traitsIcESaIcEEE @328
    _ZN5creek6Endian15sint16_to_bytesB5cxx11Es @329
    _ZN5creek6Endian15sint32_to_bytesB5cxx11Ei @330
    _ZN5creek6Endian15sint64_to_bytesB5cxx11Ex @331
    _ZN5creek6Endian16bytes_to_float32ERKNSt7__cxx1112basic_stringIcSt11char_traitsIcESaIcEEE @332
    _ZN5creek6Endian16bytes_to_float64ERKNSt7__cxx1112basic_stringIcSt11char_traitsIcESaIcEEE @333
    _ZN5creek6Endian16float32_to_bytesB5cxx11Ef @334
    _ZN5creek6Endian16float64_to_bytesB5cxx11Ed @335
    _ZN5creek6Endian8indexes8Ev @336
    _ZN5creek6Endian9indexes16Ev @337
    _ZN5creek6Endian9indexes32Ev @338
    _ZN5creek6Endian9indexes64Ev @339
    _ZN5creek6ExprDo4evalERKNS_13SharedPointerINS_5ScopeEEE @340
    _ZN5creek6ExprDoC1EPNS_10ExpressionE @341
    _ZN5creek6ExprDoC2EPNS_10ExpressionE @342
    _ZN5creek6ExprEQ4evalERKNS_13SharedPointerINS_5ScopeEEE @343
    _ZN5creek6ExprEQC1EPNS_10ExpressionES2_ @344
    _ZN5creek6ExprEQC2EPNS_10ExpressionES2_ @345
    _ZN5creek6ExprGE4evalERKNS_13SharedPointerINS_5ScopeEEE @346
    _ZN5creek6ExprGEC1EPNS_10ExpressionES2_ @347
    _ZN5creek6ExprGEC2EPNS_10ExpressionES2_ @348
    _ZN5creek6ExprGT4evalERKNS_13SharedPointerINS_5ScopeEEE @349
    _ZN5creek6ExprGTC1EPNS_10ExpressionES2_ @350
    _ZN5creek6ExprGTC2EPNS_10ExpressionES2_ @351
    _ZN5creek6ExprIf4evalERKNS_13SharedPointerINS_5ScopeEEE @352
    _ZN5creek6ExprIfC1EPNS_10ExpressionES2_S2_ @353
    _ZN5creek6ExprIfC2EPNS_10ExpressionES2_S2_ @354
    _ZN5creek6ExprLE4evalERKNS_13SharedPointerINS_5ScopeEEE @355
    _ZN5creek6ExprLEC1EPNS_10ExpressionES2_ @356
    _ZN5creek6ExprLEC2EPNS_10ExpressionES2_ @357
    _ZN5creek6ExprLT4evalERKNS_13SharedPointerINS_5ScopeEEE @358
    _ZN5creek6ExprLTC1EPNS_10ExpressionES2_ @359
    _ZN5creek6ExprLTC2EPNS_10ExpressionES2_ @360
    _ZN5creek6ExprNE4evalERKNS_13SharedPointerINS_5ScopeEEE @361
    _ZN5creek6ExprNEC1EPNS_10ExpressionES2_ @362
    _ZN5creek6ExprNEC2EPNS_10ExpressionES2_ @363
    _ZN5creek6Number14bit_left_shiftERKNS_13SharedPointerINS_5ScopeEEEPNS_4DataE @364
    _ZN5creek6Number15bit_right_shiftERKNS_13SharedPointerINS_5ScopeEEEPNS_4DataE @365
    _ZN5creek6Number3addERKNS_13SharedPointerINS_5ScopeEEEPNS_4DataE @366
    _ZN5creek6Number3cmpERKNS_13SharedPointerINS_5ScopeEEEPNS_4DataE @367
    _ZN5creek6Number3divERKNS_13SharedPointerINS_5ScopeEEEPNS_4DataE @368
    _ZN5creek6Number3expERKNS_13SharedPointerINS_5ScopeEEEPNS_4DataE @369
    _ZN5creek6Number3modERKNS_13SharedPointerINS_5ScopeEEEPNS_4DataE @370
    _ZN5creek6Number3mulERKNS_13SharedPointerINS_5ScopeEEEPNS_4DataE @371
    _ZN5creek6Number3subERKNS_13SharedPointerINS_5ScopeEEEPNS_4DataE @372
    _ZN5creek6Number3unmERKNS_13SharedPointerINS_5ScopeEEE @373
    _ZN5creek6Number6bit_orERKNS_13SharedPointerINS_5ScopeEEEPNS_4DataE @374
    _ZN5creek6Number7bit_andERKNS_13SharedPointerINS_5ScopeEEEPNS_4DataE @375
    _ZN5creek6Number7bit_notERKNS_13SharedPointerINS_5ScopeEEE @376
    _ZN5creek6Number7bit_xorERKNS_13SharedPointerINS_5ScopeEEEPNS_4DataE @377
    _ZN5creek6NumberC1Ed @378
    _ZN5creek6NumberC2Ed @379
    _ZN5creek6Object13garbage_traceEv @380
    _ZN5creek6Object14bit_left_shiftERKNS_13SharedPointerINS_5ScopeEEEPNS_4DataE @381
    _ZN5creek6Object15bit_right_shiftERKNS_13SharedPointerINS_5ScopeEEEPNS_4DataE @382
    _ZN5creek6Object3addERKNS_13SharedPointerINS_5ScopeEEEPNS_4DataE @383
    _ZN5creek6Object3cmpERKNS_13SharedPointerINS_5ScopeEEEPNS_4DataE @384
    _ZN5creek6Object3divERKNS_13SharedPointerINS_5ScopeEEEPNS_4DataE @385
    _ZN5creek6Object3expERKNS_13SharedPointerINS_5ScopeEEEPNS_4DataE @386
    _ZN5creek6Object3modERKNS_13SharedPointerINS_5ScopeEEEPNS_4DataE @387
    _ZN5creek6Object3mulERKNS_13SharedPointerINS_5ScopeEEEPNS_4DataE @388
    _ZN5creek6Object3subERKNS_13SharedPointerINS_5ScopeEEEPNS_4DataE @389
    _ZN5creek6Object3unmERKNS_13SharedPointerINS_5ScopeEEE @390
    _ZN5creek6Object4attrERKNS_13SharedPointerINS_5ScopeEEENS_7VarNameE @391
    _ZN5creek6Object4attrERKNS_13SharedPointerINS_5ScopeEEENS_7VarNameEPNS_4DataE @392
    _ZN5creek6Object4callERKNS_13SharedPointerINS_5ScopeEEERSt6vectorISt10unique_ptrINS_4DataESt14default_deleteIS8_EESaISB_EE @393
    _ZN5creek6Object4makeEPNS_4DataERKSt3mapINS_7VarNameENS_8VariableESt4lessIS4_ESaISt4pairIKS4_S5_EEE @394
    _ZN5creek6Object5indexERKNS_13SharedPointerINS_5ScopeEEEPNS_4DataE @395
    _ZN5creek6Object5indexERKNS_13SharedPointerINS_5ScopeEEEPNS_4DataES7_ @396
    _ZN5creek6Object5valueEv @397
    _ZN5creek6Object6bit_orERKNS_13SharedPointerINS_5ScopeEEEPNS_4DataE @398
    _ZN5creek6Object7bit_andERKNS_13SharedPointerINS_5ScopeEEEPNS_4DataE @399
    _ZN5creek6Object7bit_notERKNS_13SharedPointerINS_5ScopeEEE @400
    _ZN5creek6Object7bit_xorERKNS_13SharedPointerINS_5ScopeEEEPNS_4DataE @401
    _ZN5creek6Object9set_classEPNS_4DataE @402
    _ZN5creek6ObjectC1EPNS_4DataERKSt3mapINS_7VarNameENS_8VariableESt4lessIS4_ESaISt4pairIKS4_S5_EEE @403
    _ZN5creek6ObjectC1ERKNS_13SharedPointerINS0_10DefinitionEEE @404
    _ZN5creek6ObjectC2EPNS_4DataERKSt3mapINS_7VarNameENS_8VariableESt4lessIS4_ESaISt4pairIKS4_S5_EEE @405
    _ZN5creek6ObjectC2ERKNS_13SharedPointerINS0_10DefinitionEEE @406
    _ZN5creek6SharedC1ERKNS_13SharedPointerIS0_EE @407
    _ZN5creek6SharedC2ERKNS_13SharedPointerIS0_EE @408
    _ZN5creek6String3addERKNS_13SharedPointerINS_5ScopeEEEPNS_4DataE @409
    _ZN5creek6String3cmpERKNS_13SharedPointerINS_5ScopeEEEPNS_4DataE @410
    _ZN5creek6String3mulERKNS_13SharedPointerINS_5ScopeEEEPNS_4DataE @411
    _ZN5creek6String5indexERKNS_13SharedPointerINS_5ScopeEEEPNS_4DataE @412
    _ZN5creek6String5indexERKNS_13SharedPointerINS_5ScopeEEEPNS_4DataES7_ @413
    _ZN5creek6String5valueB5cxx11Ev @414
    _ZN5creek6StringC1ENSt7__cxx1112basic_stringIcSt11char_traitsIcESaIcEEE @415
    _ZN5creek6StringC2ENSt7__cxx1112basic_stringIcSt11char_traitsIcESaIcEEE @416
    _ZN5creek6Vector3cmpERKNS_13SharedPointerINS_5ScopeEEEPNS_4DataE @417
    _ZN5creek6Vector5indexERKNS_13SharedPointerINS_5ScopeEEEPNS_4DataE @418
    _ZN5creek6Vector5indexERKNS_13SharedPointerINS_5ScopeEEEPNS_4DataES7_ @419
    _ZN5creek6VectorC1ERKSt10shared_ptrISt6vectorINS_8VariableESaIS3_EEE @420
    _ZN5creek6VectorC2ERKSt10shared_ptrISt6vectorINS_8VariableESaIS3_EEE @421
    _ZN5creek7Boolean3cmpERKNS_13SharedPointerINS_5ScopeEEEPNS_4DataE @422
    _ZN5creek7BooleanC1Eb @423
    _ZN5creek7BooleanC2Eb @424
    _ZN5creek7ExprCmp4evalERKNS_13SharedPointerINS_5ScopeEEE @425
    _ZN5creek7ExprCmpC1EPNS_10ExpressionES2_ @426
    _ZN5creek7ExprCmpC2EPNS_10ExpressionES2_ @427
    _ZN5creek7ExprFor4evalERKNS_13SharedPointerINS_5ScopeEEE @428
    _ZN5creek7ExprForC1ENS_7VarNameEPNS_10ExpressionES3_S3_S3_ @429
    _ZN5creek7ExprForC2ENS_7VarNameEPNS_10ExpressionES3_S3_S3_ @430
    _ZN5creek7ExprMap4evalERKNS_13SharedPointerINS_5ScopeEEE @431
    _ZN5creek7ExprMapC1ERSt6vectorINS0_4PairESaIS2_EE @432
    _ZN5creek7ExprMapC2ERSt6vectorINS0_4PairESaIS2_EE @433
    _ZN5creek7ExprTry4evalERKNS_13SharedPointerINS_5ScopeEEE @434
    _ZN5creek7ExprTryC1EPNS_10ExpressionENS_7VarNameES2_ @435
    _ZN5creek7ExprTryC2EPNS_10ExpressionENS_7VarNameES2_ @436
    _ZN5creek7VarName5s_idsB5cxx11E @437 DATA
    _ZN5creek7VarName7from_idEj @438
    _ZN5creek7VarName7s_namesB5cxx11E @439 DATA
    _ZN5creek7VarName9from_nameERKNSt7__cxx1112basic_stringIcSt11char_traitsIcESaIcEEE @440
    _ZN5creek7VarNameC1EOS0_ @441
    _ZN5creek7VarNameC1EPKc @442
    _ZN5creek7VarNameC1ERKNSt7__cxx1112basic_stringIcSt11char_traitsIcESaIcEEE @443
    _ZN5creek7VarNameC1ERKS0_ @444
    _ZN5creek7VarNameC1Ej @445
    _ZN5creek7VarNameC1Ev @446
    _ZN5creek7VarNameC2EOS0_ @447
    _ZN5creek7VarNameC2EPKc @448
    _ZN5creek7VarNameC2ERKNSt7__cxx1112basic_stringIcSt11char_traitsIcESaIcEEE @449
    _ZN5creek7VarNameC2ERKS0_ @450
    _ZN5creek7VarNameC2Ej @451
    _ZN5creek7VarNameC2Ev @452
    _ZN5creek7VarNameaSERKS0_ @453
    _ZN5creek7Version6loadedEv @454
    _ZN5creek8Bytecode4readB5cxx11Ej @455
    _ZN5creek8Bytecode5writeERKNSt7__cxx1112basic_stringIcSt11char_traitsIcESaIcEEE @456
    _ZN5creek8BytecodeC1EONSt7__cxx1118basic_stringstreamIcSt11char_traitsIcESaIcEEE @457
    _ZN5creek8BytecodeC1EOS0_ @458
    _ZN5creek8BytecodeC1ERKNSt7__cxx1112basic_stringIcSt11char_traitsIcESaIcEEE @459
    _ZN5creek8BytecodeC1ERKNSt7__cxx1118basic_stringstreamIcSt11char_traitsIcESaIcEEE @460
    _ZN5creek8BytecodeC1ERKS0_ @461
    _ZN5creek8BytecodeC1Ev @462
    _ZN5creek8BytecodeC2EONSt7__cxx1118basic_stringstreamIcSt11char_traitsIcESaIcEEE @463
    _ZN5creek8BytecodeC2EOS0_ @464
    _ZN5creek8BytecodeC2ERKNSt7__cxx1112basic_stringIcSt11char_traitsIcESaIcEEE @465
    _ZN5creek8BytecodeC2ERKNSt7__cxx1118basic_stringstreamIcSt11char_traitsIcESaIcEEE @466
    _ZN5creek8BytecodeC2ERKS0_ @467
    _ZN5creek8BytecodeC2Ev @468
    _ZN5creek8BytecodelsERKNSt7__cxx1112basic_stringIcSt11char_traitsIcESaIcEEE @469
    _ZN5creek8BytecodelsERKS0_ @470
    _ZN5creek8BytecodelsEa @471
    _ZN5creek8BytecodelsEb @472
    _ZN5creek8BytecodelsEd @473
    _ZN5creek8BytecodelsEf @474
    _ZN5creek8BytecodelsEh @475
    _ZN5creek8BytecodelsEi @476
    _ZN5creek8BytecodelsEj @477
    _ZN5creek8BytecodelsEs @478
    _ZN5creek8BytecodelsEt @479
    _ZN5creek8BytecodelsEx @480
    _ZN5creek8BytecodelsEy @481
    _ZN5creek8BytecodersERNSt7__cxx1112basic_stringIcSt11char_traitsIcESaIcEEE @482
    _ZN5creek8BytecodersERa @483
    _ZN5creek8BytecodersERb @484
    _ZN5creek8BytecodersERd @485
    _ZN5creek8BytecodersERf @486
    _ZN5creek8BytecodersERh @487
    _ZN5creek8BytecodersERi @488
    _ZN5creek8BytecodersERj @489
    _ZN5creek8BytecodersERs @490
    _ZN5creek8BytecodersERt @491
    _ZN5creek8BytecodersERx @492
    _ZN5creek8BytecodersERy @493
    _ZN5creek8ExprCall4evalERKNS_13SharedPointerINS_5ScopeEEE @494
    _ZN5creek8ExprCallC1EPNS_10ExpressionERKSt6vectorIS2_SaIS2_EE @495
    _ZN5creek8ExprCallC2EPNS_10ExpressionERKSt6vectorIS2_SaIS2_EE @496
    _ZN5creek8ExprLoop4evalERKNS_13SharedPointerINS_5ScopeEEE @497
    _ZN5creek8ExprLoopC1EPNS_10ExpressionE @498
    _ZN5creek8ExprLoopC2EPNS_10ExpressionE @499
    _ZN5creek8ExprNull4evalERKNS_13SharedPointerINS_5ScopeEEE @500
    _ZN5creek8ExprNullC1Ev @501
    _ZN5creek8ExprNullC2Ev @502
    _ZN5creek8ExprVoid4evalERKNS_13SharedPointerINS_5ScopeEEE @503
    _ZN5creek8ExprVoidC1Ev @504
    _ZN5creek8ExprVoidC2Ev @505
    _ZN5creek8Function3cmpERKNS_13SharedPointerINS_5ScopeEEEPNS_4DataE @506
    _ZN5creek8Function4callERKNS_13SharedPointerINS_5ScopeEEERSt6vectorISt10unique_ptrINS_4DataESt14default_deleteIS8_EESaISB_EE @507
    _ZN5creek8FunctionC1ERKSt10shared_ptrINS0_10DefinitionEE @508
    _ZN5creek8FunctionC2ERKSt10shared_ptrINS0_10DefinitionEE @509
    _ZN5creek8Variable14bit_left_shiftERKNS_13SharedPointerINS_5ScopeEEERS0_ @510
    _ZN5creek8Variable15bit_right_shiftERKNS_13SharedPointerINS_5ScopeEEERS0_ @511
    _ZN5creek8Variable3addERKNS_13SharedPointerINS_5ScopeEEERS0_ @512
    _ZN5creek8Variable3divERKNS_13SharedPointerINS_5ScopeEEERS0_ @513
    _ZN5creek8Variable3expERKNS_13SharedPointerINS_5ScopeEEERS0_ @514
    _ZN5creek8Variable3modERKNS_13SharedPointerINS_5ScopeEEERS0_ @515
    _ZN5creek8Variable3mulERKNS_13SharedPointerINS_5ScopeEEERS0_ @516
    _ZN5creek8Variable3subERKNS_13SharedPointerINS_5ScopeEEERS0_ @517
    _ZN5creek8Variable3unmERKNS_13SharedPointerINS_5ScopeEEE @518
    _ZN5creek8Variable4attrERKNS_13SharedPointerINS_5ScopeEEENS_7VarNameE @519
    _ZN5creek8Variable4attrERKNS_13SharedPointerINS_5ScopeEEENS_7VarNameES0_ @520
    _ZN5creek8Variable4dataEPNS_4DataE @521
    _ZN5creek8Variable4swapERS0_ @522
    _ZN5creek8Variable5indexERKNS_13SharedPointerINS_5ScopeEEES0_ @523
    _ZN5creek8Variable5indexERKNS_13SharedPointerINS_5ScopeEEES0_S0_ @524
    _ZN5creek8Variable5resetEPNS_4DataE @525
    _ZN5creek8Variable6bit_orERKNS_13SharedPointerINS_5ScopeEEERS0_ @526
    _ZN5creek8Variable7bit_andERKNS_13SharedPointerINS_5ScopeEEERS0_ @527
    _ZN5creek8Variable7bit_notERKNS_13SharedPointerINS_5ScopeEEE @528
    _ZN5creek8Variable7bit_xorERKNS_13SharedPointerINS_5ScopeEEERS0_ @529
    _ZN5creek8Variable7releaseEv @530
    _ZN5creek8VariableC1EOS0_ @531
    _ZN5creek8VariableC1EPNS_4DataE @532
    _ZN5creek8VariableC1ERKS0_ @533
    _ZN5creek8VariableC1Ev @534
    _ZN5creek8VariableC2EOS0_ @535
    _ZN5creek8VariableC2EPNS_4DataE @536
    _ZN5creek8VariableC2ERKS0_ @537
    _ZN5creek8VariableC2Ev @538
    _ZN5creek8VariableD1Ev @539
    _ZN5creek8VariableD2Ev @540
    _ZN5creek8VariableaSEOS0_ @541
    _ZN5creek8VariableaSERKS0_ @542
    _ZN5creek8VariabledeEv @543
    _ZN5creek8VariableptEv @544
    _ZN5creek9CFunction3cmpERKNS_13SharedPointerINS_5ScopeEEEPNS_4DataE @545
    _ZN5creek9CFunction4callERKNS_13SharedPointerINS_5ScopeEEERSt6vectorISt10unique_ptrINS_4DataESt14default_deleteIS8_EESaISB_EE @546
    _ZN5creek9CFunctionC1ERKNS_13SharedPointerINS_5ScopeEEEibSt8functionIFPNS_4DataES5_RSt6vectorISt10unique_ptrIS7_St14default_deleteIS7_EESaISD_EEEE @547
    _ZN5creek9CFunctionC1ERKSt10shared_ptrINS0_10DefinitionEE @548
    _ZN5creek9CFunctionC2ERKNS_13SharedPointerINS_5ScopeEEEibSt8functionIFPNS_4DataES5_RSt6vectorISt10unique_ptrIS7_St14default_deleteIS7_EESaISD_EEEE @549
    _ZN5creek9CFunctionC2ERKSt10shared_ptrINS0_10DefinitionEE @550
    _ZN5creek9Exception6streamB5cxx11Ev @551
    _ZN5creek9ExceptionC1EOS0_ @552
    _ZN5creek9ExceptionC1ERKNSt7__cxx1112basic_stringIcSt11char_traitsIcESaIcEEE @553
    _ZN5creek9ExceptionC1ERKS0_ @554
    _ZN5creek9ExceptionC1Ev @555
    _ZN5creek9ExceptionC2EOS0_ @556
    _ZN5creek9ExceptionC2ERKNSt7__cxx1112basic_stringIcSt11char_traitsIcESaIcEEE @557
    _ZN5creek9ExceptionC2ERKS0_ @558
    _ZN5creek9ExceptionC2Ev @559
    _ZN5creek9ExprBreak4evalERKNS_13SharedPointerINS_5ScopeEEE @560
    _ZN5creek9ExprBreakC1EPNS_10ExpressionE @561
    _ZN5creek9ExprBreakC2EPNS_10ExpressionE @562
    _ZN5creek9ExprClass4evalERKNS_13SharedPointerINS_5ScopeEEE @563
    _ZN5creek9ExprClassC1ENS_7VarNameEPNS_10ExpressionES3_ @564
    _ZN5creek9ExprClassC2ENS_7VarNameEPNS_10ExpressionES3_ @565
    _ZN5creek9ExprConst4evalERKNS_13SharedPointerINS_5ScopeEEE @566
    _ZN5creek9ExprConstC1EPNS_4DataE @567
    _ZN5creek9ExprConstC2EPNS_4DataE @568
    _ZN5creek9ExprForIn4evalERKNS_13SharedPointerINS_5ScopeEEE @569
    _ZN5creek9ExprForInC1ENS_7VarNameEPNS_10ExpressionES3_ @570
    _ZN5creek9ExprForInC2ENS_7VarNameEPNS_10ExpressionES3_ @571
    _ZN5creek9ExprPrint4evalERKNS_13SharedPointerINS_5ScopeEEE @572
    _ZN5creek9ExprPrintC1EPNS_10ExpressionE @573
    _ZN5creek9ExprPrintC2EPNS_10ExpressionE @574
    _ZN5creek9ExprThrow4evalERKNS_13SharedPointerINS_5ScopeEEE @575
    _ZN5creek9ExprThrowC1EPNS_10ExpressionE @576
    _ZN5creek9ExprThrowC2EPNS_10ExpressionE @577
    _ZN5creek9ExprUnaryILNS_6OpCodeE22EXadL_ZNS_4Data3unmERKNS_13SharedPointerINS_5ScopeEEEEEE4evalES7_ @578
    _ZN5creek9ExprUnaryILNS_6OpCodeE22EXadL_ZNS_4Data3unmERKNS_13SharedPointerINS_5ScopeEEEEEEC1EPNS_10ExpressionE @579
    _ZN5creek9ExprUnaryILNS_6OpCodeE26EXadL_ZNS_4Data7bit_notERKNS_13SharedPointerINS_5ScopeEEEEEE4evalES7_ @580
    _ZN5creek9ExprUnaryILNS_6OpCodeE26EXadL_ZNS_4Data7bit_notERKNS_13SharedPointerINS_5ScopeEEEEEEC1EPNS_10ExpressionE @581
    _ZN5creek9ExprWhile4evalERKNS_13SharedPointerINS_5ScopeEEE @582
    _ZN5creek9ExprWhileC1EPNS_10ExpressionES2_ @583
    _ZN5creek9ExprWhileC2EPNS_10ExpressionES2_ @584
    _ZN5creek9UndefinedC1ERKNSt7__cxx1112basic_stringIcSt11char_traitsIcESaIcEEE @585
    _ZN5creek9UndefinedC2ERKNSt7__cxx1112basic_stringIcSt11char_traitsIcESaIcEEE @586
    _ZNK5creek10DynFuncDef11is_variadicEv @587
    _ZNK5creek10DynFuncDef4argnEv @588
    _ZNK5creek10DynFuncDef8listenerEv @589
    _ZNK5creek10ExprBinaryILNS_6OpCodeE16EXadL_ZNS_4Data3addERKNS_13SharedPointerINS_5ScopeEEEPS2_EEE14const_optimizeEv @590
    _ZNK5creek10ExprBinaryILNS_6OpCodeE16EXadL_ZNS_4Data3addERKNS_13SharedPointerINS_5ScopeEEEPS2_EEE5cloneEv @591
    _ZNK5creek10ExprBinaryILNS_6OpCodeE16EXadL_ZNS_4Data3addERKNS_13SharedPointerINS_5ScopeEEEPS2_EEE8bytecodeERNS_10VarNameMapE @592
    _ZNK5creek10ExprBinaryILNS_6OpCodeE16EXadL_ZNS_4Data3addERKNS_13SharedPointerINS_5ScopeEEEPS2_EEE8is_constEv @593
    _ZNK5creek10ExprBinaryILNS_6OpCodeE17EXadL_ZNS_4Data3subERKNS_13SharedPointerINS_5ScopeEEEPS2_EEE14const_optimizeEv @594
    _ZNK5creek10ExprBinaryILNS_6OpCodeE17EXadL_ZNS_4Data3subERKNS_13SharedPointerINS_5ScopeEEEPS2_EEE5cloneEv @595
    _ZNK5creek10ExprBinaryILNS_6OpCodeE17EXadL_ZNS_4Data3subERKNS_13SharedPointerINS_5ScopeEEEPS2_EEE8bytecodeERNS_10VarNameMapE @596
    _ZNK5creek10ExprBinaryILNS_6OpCodeE17EXadL_ZNS_4Data3subERKNS_13SharedPointerINS_5ScopeEEEPS2_EEE8is_constEv @597
    _ZNK5creek10ExprBinaryILNS_6OpCodeE18EXadL_ZNS_4Data3mulERKNS_13SharedPointerINS_5ScopeEEEPS2_EEE14const_optimizeEv @598
    _ZNK5creek10ExprBinaryILNS_6OpCodeE18EXadL_ZNS_4Data3mulERKNS_13SharedPointerINS_5ScopeEEEPS2_EEE5cloneEv @599
    _ZNK5creek10ExprBinaryILNS_6OpCodeE18EXadL_ZNS_4Data3mulERKNS_13SharedPointerINS_5ScopeEEEPS2_EEE8bytecodeERNS_10VarNameMapE @600
    _ZNK5creek10ExprBinaryILNS_6OpCodeE18EXadL_ZNS_4Data3mulERKNS_13SharedPointerINS_5ScopeEEEPS2_EEE8is_constEv @601
    _ZNK5creek10ExprBinaryILNS_6OpCodeE19EXadL_ZNS_4Data3divERKNS_13SharedPointerINS_5ScopeEEEPS2_EEE14const_optimizeEv @602
    _ZNK5creek10ExprBinaryILNS_6OpCodeE19EXadL_ZNS_4Data3divERKNS_13SharedPointerINS_5ScopeEEEPS2_EEE5cloneEv @603
    _ZNK5creek10ExprBinaryILNS_6OpCodeE19EXadL_ZNS_4Data3divERKNS_13SharedPointerINS_5ScopeEEEPS2_EEE8bytecodeERNS_10VarNameMapE @604
    _ZNK5creek10ExprBinaryILNS_6OpCodeE19EXadL_ZNS_4Data3divERKNS_13SharedPointerINS_5ScopeEEEPS2_EEE8is_constEv @605
    _ZNK5creek10ExprBinaryILNS_6OpCodeE20EXadL_ZNS_4Data3modERKNS_13SharedPointerINS_5ScopeEEEPS2_EEE14const_optimizeEv @606
    _ZNK5creek10ExprBinaryILNS_6OpCodeE20EXadL_ZNS_4Data3modERKNS_13SharedPointerINS_5ScopeEEEPS2_EEE5cloneEv @607
    _ZNK5creek10ExprBinaryILNS_6OpCodeE20EXadL_ZNS_4Data3modERKNS_13SharedPointerINS_5ScopeEEEPS2_EEE8bytecodeERNS_10VarNameMapE @608
    _ZNK5creek10ExprBinaryILNS_6OpCodeE20EXadL_ZNS_4Data3modERKNS_13SharedPointerINS_5ScopeEEEPS2_EEE8is_constEv @609
    _ZNK5creek10ExprBinaryILNS_6OpCodeE21EXadL_ZNS_4Data3expERKNS_13SharedPointerINS_5ScopeEEEPS2_EEE14const_optimizeEv @610
    _ZNK5creek10ExprBinaryILNS_6OpCodeE21EXadL_ZNS_4Data3expERKNS_13SharedPointerINS_5ScopeEEEPS2_EEE5cloneEv @611
    _ZNK5creek10ExprBinaryILNS_6OpCodeE21EXadL_ZNS_4Data3expERKNS_13SharedPointerINS_5ScopeEEEPS2_EEE8bytecodeERNS_10VarNameMapE @612
    _ZNK5creek10ExprBinaryILNS_6OpCodeE21EXadL_ZNS_4Data3expERKNS_13SharedPointerINS_5ScopeEEEPS2_EEE8is_constEv @613
    _ZNK5creek10ExprBinaryILNS_6OpCodeE23EXadL_ZNS_4Data7bit_andERKNS_13SharedPointerINS_5ScopeEEEPS2_EEE14const_optimizeEv @614
    _ZNK5creek10ExprBinaryILNS_6OpCodeE23EXadL_ZNS_4Data7bit_andERKNS_13SharedPointerINS_5ScopeEEEPS2_EEE5cloneEv @615
    _ZNK5creek10ExprBinaryILNS_6OpCodeE23EXadL_ZNS_4Data7bit_andERKNS_13SharedPointerINS_5ScopeEEEPS2_EEE8bytecodeERNS_10VarNameMapE @616
    _ZNK5creek10ExprBinaryILNS_6OpCodeE23EXadL_ZNS_4Data7bit_andERKNS_13SharedPointerINS_5ScopeEEEPS2_EEE8is_constEv @617
    _ZNK5creek10ExprBinaryILNS_6OpCodeE24EXadL_ZNS_4Data6bit_orERKNS_13SharedPointerINS_5ScopeEEEPS2_EEE14const_optimizeEv @618
    _ZNK5creek10ExprBinaryILNS_6OpCodeE24EXadL_ZNS_4Data6bit_orERKNS_13SharedPointerINS_5ScopeEEEPS2_EEE5cloneEv @619
    _ZNK5creek10ExprBinaryILNS_6OpCodeE24EXadL_ZNS_4Data6bit_orERKNS_13SharedPointerINS_5ScopeEEEPS2_EEE8bytecodeERNS_10VarNameMapE @620
    _ZNK5creek10ExprBinaryILNS_6OpCodeE24EXadL_ZNS_4Data6bit_orERKNS_13SharedPointerINS_5ScopeEEEPS2_EEE8is_constEv @621
    _ZNK5creek10ExprBinaryILNS_6OpCodeE25EXadL_ZNS_4Data7bit_xorERKNS_13SharedPointerINS_5ScopeEEEPS2_EEE14const_optimizeEv @622
    _ZNK5creek10ExprBinaryILNS_6OpCodeE25EXadL_ZNS_4Data7bit_xorERKNS_13SharedPointerINS_5ScopeEEEPS2_EEE5cloneEv @623
    _ZNK5creek10ExprBinaryILNS_6OpCodeE25EXadL_ZNS_4Data7bit_xorERKNS_13SharedPointerINS_5ScopeEEEPS2_EEE8bytecodeERNS_10VarNameMapE @624
    _ZNK5creek10ExprBinaryILNS_6OpCodeE25EXadL_ZNS_4Data7bit_xorERKNS_13SharedPointerINS_5ScopeEEEPS2_EEE8is_constEv @625
    _ZNK5creek10ExprBinaryILNS_6OpCodeE27EXadL_ZNS_4Data14bit_left_shiftERKNS_13SharedPointerINS_5ScopeEEEPS2_EEE14const_optimizeEv @626
    _ZNK5creek10ExprBinaryILNS_6OpCodeE27EXadL_ZNS_4Data14bit_left_shiftERKNS_13SharedPointerINS_5ScopeEEEPS2_EEE5cloneEv @627
    _ZNK5creek10ExprBinaryILNS_6OpCodeE27EXadL_ZNS_4Data14bit_left_shiftERKNS_13SharedPointerINS_5ScopeEEEPS2_EEE8bytecodeERNS_10VarNameMapE @628
    _ZNK5creek10ExprBinaryILNS_6OpCodeE27EXadL_ZNS_4Data14bit_left_shiftERKNS_13SharedPointerINS_5ScopeEEEPS2_EEE8is_constEv @629
    _ZNK5creek10ExprBinaryILNS_6OpCodeE28EXadL_ZNS_4Data15bit_right_shiftERKNS_13SharedPointerINS_5ScopeEEEPS2_EEE14const_optimizeEv @630
    _ZNK5creek10ExprBinaryILNS_6OpCodeE28EXadL_ZNS_4Data15bit_right_shiftERKNS_13SharedPointerINS_5ScopeEEEPS2_EEE5cloneEv @631
    _ZNK5creek10ExprBinaryILNS_6OpCodeE28EXadL_ZNS_4Data15bit_right_shiftERKNS_13SharedPointerINS_5ScopeEEEPS2_EEE8bytecodeERNS_10VarNameMapE @632
    _ZNK5creek10ExprBinaryILNS_6OpCodeE28EXadL_ZNS_4Data15bit_right_shiftERKNS_13SharedPointerINS_5ScopeEEEPS2_EEE8is_constEv @633
    _ZNK5creek10ExprBoolOr14const_optimizeEv @634
    _ZNK5creek10ExprBoolOr5cloneEv @635
    _ZNK5creek10ExprBoolOr8bytecodeERNS_10VarNameMapE @636
    _ZNK5creek10ExprBoolOr8is_constEv @637
    _ZNK5creek10ExprDynVar5cloneEv @638
    _ZNK5creek10ExprDynVar8bytecodeERNS_10VarNameMapE @639
    _ZNK5creek10ExprModule14const_optimizeEv @640
    _ZNK5creek10ExprModule5cloneEv @641
    _ZNK5creek10ExprModule8bytecodeERNS_10VarNameMapE @642
    _ZNK5creek10ExprModule8is_constEv @643
    _ZNK5creek10ExprNumber5cloneEv @644
    _ZNK5creek10ExprNumber8bytecodeERNS_10VarNameMapE @645
    _ZNK5creek10ExprNumber8is_constEv @646
    _ZNK5creek10ExprReturn14const_optimizeEv @647
    _ZNK5creek10ExprReturn5cloneEv @648
    _ZNK5creek10ExprReturn8bytecodeERNS_10VarNameMapE @649
    _ZNK5creek10ExprReturn8is_constEv @650
    _ZNK5creek10ExprString5cloneEv @651
    _ZNK5creek10ExprString8bytecodeERNS_10VarNameMapE @652
    _ZNK5creek10ExprString8is_constEv @653
    _ZNK5creek10ExprSwitch14const_optimizeEv @654
    _ZNK5creek10ExprSwitch5cloneEv @655
    _ZNK5creek10ExprSwitch8bytecodeERNS_10VarNameMapE @656
    _ZNK5creek10ExprSwitch8is_constEv @657
    _ZNK5creek10ExprVector14const_optimizeEv @658
    _ZNK5creek10ExprVector5cloneEv @659
    _ZNK5creek10ExprVector8bytecodeERNS_10VarNameMapE @660
    _ZNK5creek10ExprVector8is_constEv @661
    _ZNK5creek10Expression14const_optimizeEv @662
    _ZNK5creek10Expression8is_constEv @663
    _ZNK5creek10Identifier10bool_valueERKNS_13SharedPointerINS_5ScopeEEE @664
    _ZNK5creek10Identifier10class_nameB5cxx11Ev @665
    _ZNK5creek10Identifier10debug_textB5cxx11Ev @666
    _ZNK5creek10Identifier12double_valueERKNS_13SharedPointerINS_5ScopeEEE @667
    _ZNK5creek10Identifier12string_valueB5cxx11ERKNS_13SharedPointerINS_5ScopeEEE @668
    _ZNK5creek10Identifier13to_expressionEv @669
    _ZNK5creek10Identifier16identifier_valueERKNS_13SharedPointerINS_5ScopeEEE @670
    _ZNK5creek10Identifier4copyEv @671
    _ZNK5creek10Identifier9get_classERKNS_13SharedPointerINS_5ScopeEEE @672
    _ZNK5creek10Identifier9int_valueERKNS_13SharedPointerINS_5ScopeEEE @673
    _ZNK5creek10LexicError4lineEv @674
    _ZNK5creek10LexicError6columnEv @675
    _ZNK5creek10VarNameMap12name_from_idB5cxx11Ej @676
    _ZNK5creek10VarNameMap17global_from_localEj @677
    _ZNK5creek10VarNameMap3mapB5cxx11Ev @678
    _ZNK5creek11BadArgument8arg_nameB5cxx11Ev @679
    _ZNK5creek11DynClassDef11find_methodERKNSt7__cxx1112basic_stringIcSt11char_traitsIcESaIcEEE @680
    _ZNK5creek11DynClassDef11find_staticERKNSt7__cxx1112basic_stringIcSt11char_traitsIcESaIcEEE @681
    _ZNK5creek11DynClassDef4nameB5cxx11Ev @682
    _ZNK5creek11DynClassDef9class_objEv @683
    _ZNK5creek11DynClassDef9find_attrERKNSt7__cxx1112basic_stringIcSt11char_traitsIcESaIcEEE @684
    _ZNK5creek11ExprAttrGet14const_optimizeEv @685
    _ZNK5creek11ExprAttrGet5cloneEv @686
    _ZNK5creek11ExprAttrGet8bytecodeERNS_10VarNameMapE @687
    _ZNK5creek11ExprAttrGet8is_constEv @688
    _ZNK5creek11ExprAttrSet14const_optimizeEv @689
    _ZNK5creek11ExprAttrSet5cloneEv @690
    _ZNK5creek11ExprAttrSet8bytecodeERNS_10VarNameMapE @691
    _ZNK5creek11ExprAttrSet8is_constEv @692
    _ZNK5creek11ExprBoolAnd14const_optimizeEv @693
    _ZNK5creek11ExprBoolAnd5cloneEv @694
    _ZNK5creek11ExprBoolAnd8bytecodeERNS_10VarNameMapE @695
    _ZNK5creek11ExprBoolAnd8is_constEv @696
    _ZNK5creek11ExprBoolNot14const_optimizeEv @697
    _ZNK5creek11ExprBoolNot5cloneEv @698
    _ZNK5creek11ExprBoolNot8bytecodeERNS_10VarNameMapE @699
    _ZNK5creek11ExprBoolNot8is_constEv @700
    _ZNK5creek11ExprBoolXor14const_optimizeEv @701
    _ZNK5creek11ExprBoolXor5cloneEv @702
    _ZNK5creek11ExprBoolXor8bytecodeERNS_10VarNameMapE @703
    _ZNK5creek11ExprBoolXor8is_constEv @704
    _ZNK5creek11ExprBoolean5cloneEv @705
    _ZNK5creek11ExprBoolean8bytecodeERNS_10VarNameMapE @706
    _ZNK5creek11ExprBoolean8is_constEv @707
    _ZNK5creek11ExprDynFunc5cloneEv @708
    _ZNK5creek11ExprDynFunc8bytecodeERNS_10VarNameMapE @709
    _ZNK5creek11SyntaxError5tokenEv @710
    _ZNK5creek11WeakPointerINS_18GarbageCollectableEE4lockEv @711
    _ZNK5creek12DynCFunction10class_nameB5cxx11Ev @712
    _ZNK5creek12DynCFunction10debug_textB5cxx11Ev @713
    _ZNK5creek12DynCFunction4copyEv @714
    _ZNK5creek12ExprDynClass5cloneEv @715
    _ZNK5creek12ExprDynClass8bytecodeERNS_10VarNameMapE @716
    _ZNK5creek12ExprFunction14const_optimizeEv @717
    _ZNK5creek12ExprFunction5cloneEv @718
    _ZNK5creek12ExprFunction8bytecodeERNS_10VarNameMapE @719
    _ZNK5creek12ExprFunction8is_constEv @720
    _ZNK5creek12ExprIndexGet14const_optimizeEv @721
    _ZNK5creek12ExprIndexGet5cloneEv @722
    _ZNK5creek12ExprIndexGet8bytecodeERNS_10VarNameMapE @723
    _ZNK5creek12ExprIndexGet8is_constEv @724
    _ZNK5creek12ExprIndexSet14const_optimizeEv @725
    _ZNK5creek12ExprIndexSet5cloneEv @726
    _ZNK5creek12ExprIndexSet8bytecodeERNS_10VarNameMapE @727
    _ZNK5creek12ExprIndexSet8is_constEv @728
    _ZNK5creek12RuntimeError4exprEv @729
    _ZNK5creek13ExprLoadLocal14const_optimizeEv @730
    _ZNK5creek13ExprLoadLocal5cloneEv @731
    _ZNK5creek13ExprLoadLocal8bytecodeERNS_10VarNameMapE @732
    _ZNK5creek13ExprLoadLocal8is_constEv @733
    _ZNK5creek13SharedPointerINS_10ConstScopeEE3ptrEv @734
    _ZNK5creek13SharedPointerINS_10LocalScopeEE3getEv @735
    _ZNK5creek13SharedPointerINS_10LocalScopeEE3ptrEv @736
    _ZNK5creek13SharedPointerINS_10LocalScopeEEptEv @737
    _ZNK5creek13SharedPointerINS_11GlobalScopeEE3getEv @738
    _ZNK5creek13SharedPointerINS_11GlobalScopeEEptEv @739
    _ZNK5creek13SharedPointerINS_11ObjectScopeEE3ptrEv @740
    _ZNK5creek13SharedPointerINS_18GarbageCollectableEE3getEv @741
    _ZNK5creek13SharedPointerINS_18GarbageCollectableEEcvbEv @742
    _ZNK5creek13SharedPointerINS_18GarbageCollectableEEptEv @743
    _ZNK5creek13SharedPointerINS_5ScopeEE3getEv @744
    _ZNK5creek13SharedPointerINS_5ScopeEEcvbEv @745
    _ZNK5creek13SharedPointerINS_5ScopeEEptEv @746
    _ZNK5creek13SharedPointerINS_6Object10DefinitionEE3getEv @747
    _ZNK5creek13SharedPointerINS_6Object10DefinitionEE3ptrEv @748
    _ZNK5creek13SharedPointerINS_6Object10DefinitionEEcvbEv @749
    _ZNK5creek13SharedPointerINS_6Object10DefinitionEEptEv @750
    _ZNK5creek13SharedPointerINS_6SharedEE3ptrEv @751
    _ZNK5creek14AmbiguousToken5typesEv @752
    _ZNK5creek14ExprBasicBlock14const_optimizeEv @753
    _ZNK5creek14ExprBasicBlock5cloneEv @754
    _ZNK5creek14ExprBasicBlock8bytecodeERNS_10VarNameMapE @755
    _ZNK5creek14ExprBasicBlock8is_constEv @756
    _ZNK5creek14ExprCallMethod14const_optimizeEv @757
    _ZNK5creek14ExprCallMethod5cloneEv @758
    _ZNK5creek14ExprCallMethod8bytecodeERNS_10VarNameMapE @759
    _ZNK5creek14ExprCallMethod8is_constEv @760
    _ZNK5creek14ExprIdentifier5cloneEv @761
    _ZNK5creek14ExprIdentifier8bytecodeERNS_10VarNameMapE @762
    _ZNK5creek14ExprIdentifier8is_constEv @763
    _ZNK5creek14ExprLoadGlobal14const_optimizeEv @764
    _ZNK5creek14ExprLoadGlobal5cloneEv @765
    _ZNK5creek14ExprLoadGlobal8bytecodeERNS_10VarNameMapE @766
    _ZNK5creek14ExprLoadGlobal8is_constEv @767
    _ZNK5creek14ExprStoreLocal14const_optimizeEv @768
    _ZNK5creek14ExprStoreLocal5cloneEv @769
    _ZNK5creek14ExprStoreLocal8bytecodeERNS_10VarNameMapE @770
    _ZNK5creek14ExprStoreLocal8is_constEv @771
    _ZNK5creek15DynLibraryError4pathB5cxx11Ev @772
    _ZNK5creek15ExprCreateLocal14const_optimizeEv @773
    _ZNK5creek15ExprCreateLocal5cloneEv @774
    _ZNK5creek15ExprCreateLocal8bytecodeERNS_10VarNameMapE @775
    _ZNK5creek15ExprCreateLocal8is_constEv @776
    _ZNK5creek15ExprStoreGlobal14const_optimizeEv @777
    _ZNK5creek15ExprStoreGlobal5cloneEv @778
    _ZNK5creek15ExprStoreGlobal8bytecodeERNS_10VarNameMapE @779
    _ZNK5creek15ExprStoreGlobal8is_constEv @780
    _ZNK5creek16ExprCreateGlobal14const_optimizeEv @781
    _ZNK5creek16ExprCreateGlobal5cloneEv @782
    _ZNK5creek16ExprCreateGlobal8bytecodeERNS_10VarNameMapE @783
    _ZNK5creek16ExprCreateGlobal8is_constEv @784
    _ZNK5creek16ExprVariadicCall14const_optimizeEv @785
    _ZNK5creek16ExprVariadicCall5cloneEv @786
    _ZNK5creek16ExprVariadicCall8bytecodeERNS_10VarNameMapE @787
    _ZNK5creek16ExprVariadicCall8is_constEv @788
    _ZNK5creek17DynSymbolNotFound6symbolB5cxx11Ev @789
    _ZNK5creek18BadCharacterEscape3posEv @790
    _ZNK5creek18BadCharacterEscape6sourceB5cxx11Ev @791
    _ZNK5creek19InterpreterOperator10precedenceEv @792
    _ZNK5creek19InterpreterOperator6stringB5cxx11Ev @793
    _ZNK5creek19InterpreterOperatorltERKS0_ @794
    _ZNK5creek22ExprVariadicCallMethod14const_optimizeEv @795
    _ZNK5creek22ExprVariadicCallMethod5cloneEv @796
    _ZNK5creek22ExprVariadicCallMethod8bytecodeERNS_10VarNameMapE @797
    _ZNK5creek22ExprVariadicCallMethod8is_constEv @798
    _ZNK5creek3Map10bool_valueERKNS_13SharedPointerINS_5ScopeEEE @799
    _ZNK5creek3Map10class_nameB5cxx11Ev @800
    _ZNK5creek3Map10debug_textB5cxx11Ev @801
    _ZNK5creek3Map13to_expressionEv @802
    _ZNK5creek3Map4copyEv @803
    _ZNK5creek3Map5valueEv @804
    _ZNK5creek3Map9get_classERKNS_13SharedPointerINS_5ScopeEEE @805
    _ZNK5creek4Data10bool_valueERKNS_13SharedPointerINS_5ScopeEEE @806
    _ZNK5creek4Data10char_valueERKNS_13SharedPointerINS_5ScopeEEE @807
    _ZNK5creek4Data10class_nameB5cxx11Ev @808
    _ZNK5creek4Data10debug_textB5cxx11Ev @809
    _ZNK5creek4Data11call_methodERKNS_13SharedPointerINS_5ScopeEEENS_7VarNameERKSt6vectorIPS0_SaIS8_EE @810
    _ZNK5creek4Data12double_valueERKNS_13SharedPointerINS_5ScopeEEE @811
    _ZNK5creek4Data12string_valueB5cxx11ERKNS_13SharedPointerINS_5ScopeEEE @812
    _ZNK5creek4Data12vector_valueERKNS_13SharedPointerINS_5ScopeEEE @813
    _ZNK5creek4Data13to_expressionEv @814
    _ZNK5creek4Data16identifier_valueERKNS_13SharedPointerINS_5ScopeEEE @815
    _ZNK5creek4Data4copyEv @816
    _ZNK5creek4Data5cloneEv @817
    _ZNK5creek4Data9get_classERKNS_13SharedPointerINS_5ScopeEEE @818
    _ZNK5creek4Data9int_valueERKNS_13SharedPointerINS_5ScopeEEE @819
    _ZNK5creek4Null10bool_valueERKNS_13SharedPointerINS_5ScopeEEE @820
    _ZNK5creek4Null10class_nameB5cxx11Ev @821
    _ZNK5creek4Null10debug_textB5cxx11Ev @822
    _ZNK5creek4Null12double_valueERKNS_13SharedPointerINS_5ScopeEEE @823
    _ZNK5creek4Null12string_valueB5cxx11ERKNS_13SharedPointerINS_5ScopeEEE @824
    _ZNK5creek4Null13to_expressionEv @825
    _ZNK5creek4Null4copyEv @826
    _ZNK5creek4Null9get_classERKNS_13SharedPointerINS_5ScopeEEE @827
    _ZNK5creek4Null9int_valueERKNS_13SharedPointerINS_5ScopeEEE @828
    _ZNK5creek4Void10bool_valueERKNS_13SharedPointerINS_5ScopeEEE @829
    _ZNK5creek4Void10class_nameB5cxx11Ev @830
    _ZNK5creek4Void10debug_textB5cxx11Ev @831
    _ZNK5creek4Void13to_expressionEv @832
    _ZNK5creek4Void4copyEv @833
    _ZNK5creek4Void9get_classERKNS_13SharedPointerINS_5ScopeEEE @834
    _ZNK5creek5Scope11break_pointEv @835
    _ZNK5creek5Scope11is_breakingEv @836
    _ZNK5creek5Scope12is_returningEv @837
    _ZNK5creek5Scope12return_pointEv @838
    _ZNK5creek5Token10identifierB5cxx11Ev @839
    _ZNK5creek5Token4lineEv @840
    _ZNK5creek5Token4textB5cxx11Ev @841
    _ZNK5creek5Token4typeEv @842
    _ZNK5creek5Token6columnEv @843
    _ZNK5creek5Token6stringB5cxx11Ev @844
    _ZNK5creek5Token7booleanEv @845
    _ZNK5creek5Token9characterEv @846
    _ZNK5creek6ExprDo14const_optimizeEv @847
    _ZNK5creek6ExprDo5cloneEv @848
    _ZNK5creek6ExprDo8bytecodeERNS_10VarNameMapE @849
    _ZNK5creek6ExprDo8is_constEv @850
    _ZNK5creek6ExprEQ14const_optimizeEv @851
    _ZNK5creek6ExprEQ5cloneEv @852
    _ZNK5creek6ExprEQ8bytecodeERNS_10VarNameMapE @853
    _ZNK5creek6ExprEQ8is_constEv @854
    _ZNK5creek6ExprGE14const_optimizeEv @855
    _ZNK5creek6ExprGE5cloneEv @856
    _ZNK5creek6ExprGE8bytecodeERNS_10VarNameMapE @857
    _ZNK5creek6ExprGE8is_constEv @858
    _ZNK5creek6ExprGT14const_optimizeEv @859
    _ZNK5creek6ExprGT5cloneEv @860
    _ZNK5creek6ExprGT8bytecodeERNS_10VarNameMapE @861
    _ZNK5creek6ExprGT8is_constEv @862
    _ZNK5creek6ExprIf14const_optimizeEv @863
    _ZNK5creek6ExprIf5cloneEv @864
    _ZNK5creek6ExprIf8bytecodeERNS_10VarNameMapE @865
    _ZNK5creek6ExprIf8is_constEv @866
    _ZNK5creek6ExprLE14const_optimizeEv @867
    _ZNK5creek6ExprLE5cloneEv @868
    _ZNK5creek6ExprLE8bytecodeERNS_10VarNameMapE @869
    _ZNK5creek6ExprLE8is_constEv @870
    _ZNK5creek6ExprLT14const_optimizeEv @871
    _ZNK5creek6ExprLT5cloneEv @872
    _ZNK5creek6ExprLT8bytecodeERNS_10VarNameMapE @873
    _ZNK5creek6ExprLT8is_constEv @874
    _ZNK5creek6ExprNE14const_optimizeEv @875
    _ZNK5creek6ExprNE5cloneEv @876
    _ZNK5creek6ExprNE8bytecodeERNS_10VarNameMapE @877
    _ZNK5creek6ExprNE8is_constEv @878
    _ZNK5creek6Number10bool_valueERKNS_13SharedPointerINS_5ScopeEEE @879
    _ZNK5creek6Number10class_nameB5cxx11Ev @880
    _ZNK5creek6Number10debug_textB5cxx11Ev @881
    _ZNK5creek6Number12double_valueERKNS_13SharedPointerINS_5ScopeEEE @882
    _ZNK5creek6Number13to_expressionEv @883
    _ZNK5creek6Number4copyEv @884
    _ZNK5creek6Number9get_classERKNS_13SharedPointerINS_5ScopeEEE @885
    _ZNK5creek6Number9int_valueERKNS_13SharedPointerINS_5ScopeEEE @886
    _ZNK5creek6Object10bool_valueERKNS_13SharedPointerINS_5ScopeEEE @887
    _ZNK5creek6Object10char_valueERKNS_13SharedPointerINS_5ScopeEEE @888
    _ZNK5creek6Object10class_nameB5cxx11Ev @889
    _ZNK5creek6Object10debug_textB5cxx11Ev @890
    _ZNK5creek6Object12double_valueERKNS_13SharedPointerINS_5ScopeEEE @891
    _ZNK5creek6Object12vector_valueERKNS_13SharedPointerINS_5ScopeEEE @892
    _ZNK5creek6Object4copyEv @893
    _ZNK5creek6Object5cloneEv @894
    _ZNK5creek6Object9get_classERKNS_13SharedPointerINS_5ScopeEEE @895
    _ZNK5creek6Object9int_valueERKNS_13SharedPointerINS_5ScopeEEE @896
    _ZNK5creek6String10bool_valueERKNS_13SharedPointerINS_5ScopeEEE @897
    _ZNK5creek6String10char_valueERKNS_13SharedPointerINS_5ScopeEEE @898
    _ZNK5creek6String10class_nameB5cxx11Ev @899
    _ZNK5creek6String10debug_textB5cxx11Ev @900
    _ZNK5creek6String12string_valueB5cxx11ERKNS_13SharedPointerINS_5ScopeEEE @901
    _ZNK5creek6String13to_expressionEv @902
    _ZNK5creek6String4copyEv @903
    _ZNK5creek6String5valueB5cxx11Ev @904
    _ZNK5creek6String9get_classERKNS_13SharedPointerINS_5ScopeEEE @905
    _ZNK5creek6Vector10bool_valueERKNS_13SharedPointerINS_5ScopeEEE @906
    _ZNK5creek6Vector10class_nameB5cxx11Ev @907
    _ZNK5creek6Vector10debug_textB5cxx11Ev @908
    _ZNK5creek6Vector12vector_valueERKNS_13SharedPointerINS_5ScopeEEE @909
    _ZNK5creek6Vector13to_expressionEv @910
    _ZNK5creek6Vector4copyEv @911
    _ZNK5creek6Vector5valueEv @912
    _ZNK5creek6Vector9get_classERKNS_13SharedPointerINS_5ScopeEEE @913
    _ZNK5creek7Boolean10bool_valueERKNS_13SharedPointerINS_5ScopeEEE @914
    _ZNK5creek7Boolean10class_nameB5cxx11Ev @915
    _ZNK5creek7Boolean10debug_textB5cxx11Ev @916
    _ZNK5creek7Boolean12double_valueERKNS_13SharedPointerINS_5ScopeEEE @917
    _ZNK5creek7Boolean12string_valueB5cxx11ERKNS_13SharedPointerINS_5ScopeEEE @918
    _ZNK5creek7Boolean13to_expressionEv @919
    _ZNK5creek7Boolean4copyEv @920
    _ZNK5creek7Boolean9get_classERKNS_13SharedPointerINS_5ScopeEEE @921
    _ZNK5creek7Boolean9int_valueERKNS_13SharedPointerINS_5ScopeEEE @922
    _ZNK5creek7ExprCmp14const_optimizeEv @923
    _ZNK5creek7ExprCmp5cloneEv @924
    _ZNK5creek7ExprCmp8bytecodeERNS_10VarNameMapE @925
    _ZNK5creek7ExprCmp8is_constEv @926
    _ZNK5creek7ExprFor14const_optimizeEv @927
    _ZNK5creek7ExprFor5cloneEv @928
    _ZNK5creek7ExprFor8bytecodeERNS_10VarNameMapE @929
    _ZNK5creek7ExprFor8is_constEv @930
    _ZNK5creek7ExprMap14const_optimizeEv @931
    _ZNK5creek7ExprMap5cloneEv @932
    _ZNK5creek7ExprMap8bytecodeERNS_10VarNameMapE @933
    _ZNK5creek7ExprMap8is_constEv @934
    _ZNK5creek7ExprTry14const_optimizeEv @935
    _ZNK5creek7ExprTry5cloneEv @936
    _ZNK5creek7ExprTry8bytecodeERNS_10VarNameMapE @937
    _ZNK5creek7ExprTry8is_constEv @938
    _ZNK5creek7VarName2idEv @939
    _ZNK5creek7VarName4nameB5cxx11Ev @940
    _ZNK5creek7VarNameeqERKS0_ @941
    _ZNK5creek7VarNamegeERKS0_ @942
    _ZNK5creek7VarNamegtERKS0_ @943
    _ZNK5creek7VarNameleERKS0_ @944
    _ZNK5creek7VarNameltERKS0_ @945
    _ZNK5creek7VarNameneERKS0_ @946
    _ZNK5creek7Version3strB5cxx11Ei @947
    _ZNK5creek7Version5majorEv @948
    _ZNK5creek7Version5minorEv @949
    _ZNK5creek7Version5patchEv @950
    _ZNK5creek8Bytecode5bytesB5cxx11Ejj @951
    _ZNK5creek8Bytecode5bytesB5cxx11Ev @952
    _ZNK5creek8BytecodecvbEv @953
    _ZNK5creek8ExprCall14const_optimizeEv @954
    _ZNK5creek8ExprCall5cloneEv @955
    _ZNK5creek8ExprCall8bytecodeERNS_10VarNameMapE @956
    _ZNK5creek8ExprCall8is_constEv @957
    _ZNK5creek8ExprLoop14const_optimizeEv @958
    _ZNK5creek8ExprLoop5cloneEv @959
    _ZNK5creek8ExprLoop8bytecodeERNS_10VarNameMapE @960
    _ZNK5creek8ExprLoop8is_constEv @961
    _ZNK5creek8ExprNull5cloneEv @962
    _ZNK5creek8ExprNull8bytecodeERNS_10VarNameMapE @963
    _ZNK5creek8ExprNull8is_constEv @964
    _ZNK5creek8ExprVoid5cloneEv @965
    _ZNK5creek8ExprVoid8bytecodeERNS_10VarNameMapE @966
    _ZNK5creek8ExprVoid8is_constEv @967
    _ZNK5creek8Function10bool_valueERKNS_13SharedPointerINS_5ScopeEEE @968
    _ZNK5creek8Function10class_nameB5cxx11Ev @969
    _ZNK5creek8Function10debug_textB5cxx11Ev @970
    _ZNK5creek8Function13to_expressionEv @971
    _ZNK5creek8Function4copyEv @972
    _ZNK5creek8Variable3cmpERKNS_13SharedPointerINS_5ScopeEEERKS0_ @973
    _ZNK5creek8Variable4dataEv @974
    _ZNK5creek8VariablecvbEv @975
    _ZNK5creek8VariabledeEv @976
    _ZNK5creek8VariableptEv @977
    _ZNK5creek9CFunction10bool_valueERKNS_13SharedPointerINS_5ScopeEEE @978
    _ZNK5creek9CFunction10class_nameB5cxx11Ev @979
    _ZNK5creek9CFunction10debug_textB5cxx11Ev @980
    _ZNK5creek9CFunction4copyEv @981
    _ZNK5creek9CFunction5valueEv @982
    _ZNK5creek9Exception7messageB5cxx11Ev @983
    _ZNK5creek9ExprBreak14const_optimizeEv @984
    _ZNK5creek9ExprBreak5cloneEv @985
    _ZNK5creek9ExprBreak8bytecodeERNS_10VarNameMapE @986
    _ZNK5creek9ExprBreak8is_constEv @987
    _ZNK5creek9ExprClass14const_optimizeEv @988
    _ZNK5creek9ExprClass5cloneEv @989
    _ZNK5creek9ExprClass8bytecodeERNS_10VarNameMapE @990
    _ZNK5creek9ExprClass8is_constEv @991
    _ZNK5creek9ExprConst5cloneEv @992
    _ZNK5creek9ExprConst8bytecodeERNS_10VarNameMapE @993
    _ZNK5creek9ExprConst8is_constEv @994
    _ZNK5creek9ExprForIn14const_optimizeEv @995
    _ZNK5creek9ExprForIn5cloneEv @996
    _ZNK5creek9ExprForIn8bytecodeERNS_10VarNameMapE @997
    _ZNK5creek9ExprForIn8is_constEv @998
    _ZNK5creek9ExprPrint14const_optimizeEv @999
    _ZNK5creek9ExprPrint5cloneEv @1000
    _ZNK5creek9ExprPrint8bytecodeERNS_10VarNameMapE @1001
    _ZNK5creek9ExprPrint8is_constEv @1002
    _ZNK5creek9ExprThrow14const_optimizeEv @1003
    _ZNK5creek9ExprThrow5cloneEv @1004
    _ZNK5creek9ExprThrow8bytecodeERNS_10VarNameMapE @1005
    _ZNK5creek9ExprThrow8is_constEv @1006
    _ZNK5creek9ExprUnaryILNS_6OpCodeE22EXadL_ZNS_4Data3unmERKNS_13SharedPointerINS_5ScopeEEEEEE14const_optimizeEv @1007
    _ZNK5creek9ExprUnaryILNS_6OpCodeE22EXadL_ZNS_4Data3unmERKNS_13SharedPointerINS_5ScopeEEEEEE5cloneEv @1008
    _ZNK5creek9ExprUnaryILNS_6OpCodeE22EXadL_ZNS_4Data3unmERKNS_13SharedPointerINS_5ScopeEEEEEE8bytecodeERNS_10VarNameMapE @1009
    _ZNK5creek9ExprUnaryILNS_6OpCodeE22EXadL_ZNS_4Data3unmERKNS_13SharedPointerINS_5ScopeEEEEEE8is_constEv @1010
    _ZNK5creek9ExprUnaryILNS_6OpCodeE26EXadL_ZNS_4Data7bit_notERKNS_13SharedPointerINS_5ScopeEEEEEE14const_optimizeEv @1011
    _ZNK5creek9ExprUnaryILNS_6OpCodeE26EXadL_ZNS_4Data7bit_notERKNS_13SharedPointerINS_5ScopeEEEEEE5cloneEv @1012
    _ZNK5creek9ExprUnaryILNS_6OpCodeE26EXadL_ZNS_4Data7bit_notERKNS_13SharedPointerINS_5ScopeEEEEEE8bytecodeERNS_10VarNameMapE @1013
    _ZNK5creek9ExprUnaryILNS_6OpCodeE26EXadL_ZNS_4Data7bit_notERKNS_13SharedPointerINS_5ScopeEEEEEE8is_constEv @1014
    _ZNK5creek9ExprWhile14const_optimizeEv @1015
    _ZNK5creek9ExprWhile5cloneEv @1016
    _ZNK5creek9ExprWhile8bytecodeERNS_10VarNameMapE @1017
    _ZNK5creek9ExprWhile8is_constEv @1018
    _ZTIN5creek10ConstScopeE @1019 DATA
    _ZTIN5creek10ExprBinaryILNS_6OpCodeE16EXadL_ZNS_4Data3addERKNS_13SharedPointerINS_5ScopeEEEPS2_EEEE @1020 DATA
    _ZTIN5creek10ExprBinaryILNS_6OpCodeE17EXadL_ZNS_4Data3subERKNS_13SharedPointerINS_5ScopeEEEPS2_EEEE @1021 DATA
    _ZTIN5creek10ExprBinaryILNS_6OpCodeE18EXadL_ZNS_4Data3mulERKNS_13SharedPointerINS_5ScopeEEEPS2_EEEE @1022 DATA
    _ZTIN5creek10ExprBinaryILNS_6OpCodeE19EXadL_ZNS_4Data3divERKNS_13SharedPointerINS_5ScopeEEEPS2_EEEE @1023 DATA
    _ZTIN5creek10ExprBinaryILNS_6OpCodeE20EXadL_ZNS_4Data3modERKNS_13SharedPointerINS_5ScopeEEEPS2_EEEE @1024 DATA
    _ZTIN5creek10ExprBinaryILNS_6OpCodeE21EXadL_ZNS_4Data3expERKNS_13SharedPointerINS_5ScopeEEEPS2_EEEE @1025 DATA
    _ZTIN5creek10ExprBinaryILNS_6OpCodeE23EXadL_ZNS_4Data7bit_andERKNS_13SharedPointerINS_5ScopeEEEPS2_EEEE @1026 DATA
    _ZTIN5creek10ExprBinaryILNS_6OpCodeE24EXadL_ZNS_4Data6bit_orERKNS_13SharedPointerINS_5ScopeEEEPS2_EEEE @1027 DATA
    _ZTIN5creek10ExprBinaryILNS_6OpCodeE25EXadL_ZNS_4Data7bit_xorERKNS_13SharedPointerINS_5ScopeEEEPS2_EEEE @1028 DATA
    _ZTIN5creek10ExprBinaryILNS_6OpCodeE27EXadL_ZNS_4Data14bit_left_shiftERKNS_13SharedPointerINS_5ScopeEEEPS2_EEEE @1029 DATA
    _ZTIN5creek10ExprBinaryILNS_6OpCodeE28EXadL_ZNS_4Data15bit_right_shiftERKNS_13SharedPointerINS_5ScopeEEEPS2_EEEE @1030 DATA
    _ZTIN5creek10ExprBoolOrE @1031 DATA
    _ZTIN5creek10ExprDynVarE @1032 DATA
    _ZTIN5creek10ExprModuleE @1033 DATA
    _ZTIN5creek10ExprNumberE @1034 DATA
    _ZTIN5creek10ExprReturnE @1035 DATA
    _ZTIN5creek10ExprStringE @1036 DATA
    _ZTIN5creek10ExprSwitchE @1037 DATA
    _ZTIN5creek10ExprVectorE @1038 DATA
    _ZTIN5creek10ExpressionE @1039 DATA
    _ZTIN5creek10IdentifierE @1040 DATA
    _ZTIN5creek10LexicErrorE @1041 DATA
    _ZTIN5creek10LocalScopeE @1042 DATA
    _ZTIN5creek11BadArgumentE @1043 DATA
    _ZTIN5creek11ExprAttrGetE @1044 DATA
    _ZTIN5creek11ExprAttrSetE @1045 DATA
    _ZTIN5creek11ExprBoolAndE @1046 DATA
    _ZTIN5creek11ExprBoolNotE @1047 DATA
    _ZTIN5creek11ExprBoolXorE @1048 DATA
    _ZTIN5creek11ExprBooleanE @1049 DATA
    _ZTIN5creek11ExprDynFuncE @1050 DATA
    _ZTIN5creek11GlobalScopeE @1051 DATA
    _ZTIN5creek11ObjectScopeE @1052 DATA
    _ZTIN5creek11SyntaxErrorE @1053 DATA
    _ZTIN5creek12DynCFunctionE @1054 DATA
    _ZTIN5creek12ExprDynClassE @1055 DATA
    _ZTIN5creek12ExprFunctionE @1056 DATA
    _ZTIN5creek12ExprIndexGetE @1057 DATA
    _ZTIN5creek12ExprIndexSetE @1058 DATA
    _ZTIN5creek12RuntimeErrorE @1059 DATA
    _ZTIN5creek13ExprLoadLocalE @1060 DATA
    _ZTIN5creek13UnexpectedEofE @1061 DATA
    _ZTIN5creek13UnimplementedE @1062 DATA
    _ZTIN5creek14AmbiguousTokenE @1063 DATA
    _ZTIN5creek14ExprBasicBlockE @1064 DATA
    _ZTIN5creek14ExprCallMethodE @1065 DATA
    _ZTIN5creek14ExprIdentifierE @1066 DATA
    _ZTIN5creek14ExprLoadGlobalE @1067 DATA
    _ZTIN5creek14ExprStoreLocalE @1068 DATA
    _ZTIN5creek14WrongArgNumberE @1069 DATA
    _ZTIN5creek15BadNumberFormatE @1070 DATA
    _ZTIN5creek15DynLibraryErrorE @1071 DATA
    _ZTIN5creek15ExprCreateLocalE @1072 DATA
    _ZTIN5creek15ExprStoreGlobalE @1073 DATA
    _ZTIN5creek15UnexpectedTokenE @1074 DATA
    _ZTIN5creek16ExprCreateGlobalE @1075 DATA
    _ZTIN5creek16ExprVariadicCallE @1076 DATA
    _ZTIN5creek17DynSymbolNotFoundE @1077 DATA
    _ZTIN5creek18BadCharacterEscapeE @1078 DATA
    _ZTIN5creek18GarbageCollectableE @1079 DATA
    _ZTIN5creek19UnexpectedCharacterE @1080 DATA
    _ZTIN5creek22ExprVariadicCallMethodE @1081 DATA
    _ZTIN5creek3MapE @1082 DATA
    _ZTIN5creek4DataE @1083 DATA
    _ZTIN5creek4NullE @1084 DATA
    _ZTIN5creek4VoidE @1085 DATA
    _ZTIN5creek5ScopeE @1086 DATA
    _ZTIN5creek6ExprDoE @1087 DATA
    _ZTIN5creek6ExprEQE @1088 DATA
    _ZTIN5creek6ExprGEE @1089 DATA
    _ZTIN5creek6ExprGTE @1090 DATA
    _ZTIN5creek6ExprIfE @1091 DATA
    _ZTIN5creek6ExprLEE @1092 DATA
    _ZTIN5creek6ExprLTE @1093 DATA
    _ZTIN5creek6ExprNEE @1094 DATA
    _ZTIN5creek6NumberE @1095 DATA
    _ZTIN5creek6ObjectE @1096 DATA
    _ZTIN5creek6SharedE @1097 DATA
    _ZTIN5creek6StringE @1098 DATA
    _ZTIN5creek6VectorE @1099 DATA
    _ZTIN5creek7BooleanE @1100 DATA
    _ZTIN5creek7ExprCmpE @1101 DATA
    _ZTIN5creek7ExprForE @1102 DATA
    _ZTIN5creek7ExprMapE @1103 DATA
    _ZTIN5creek7ExprTryE @1104 DATA
    _ZTIN5creek8ExprCallE @1105 DATA
    _ZTIN5creek8ExprLoopE @1106 DATA
    _ZTIN5creek8ExprNullE @1107 DATA
    _ZTIN5creek8ExprVoidE @1108 DATA
    _ZTIN5creek8FunctionE @1109 DATA
    _ZTIN5creek9CFunctionE @1110 DATA
    _ZTIN5creek9ExceptionE @1111 DATA
    _ZTIN5creek9ExprBreakE @1112 DATA
    _ZTIN5creek9ExprClassE @1113 DATA
    _ZTIN5creek9ExprConstE @1114 DATA
    _ZTIN5creek9ExprForInE @1115 DATA
    _ZTIN5creek9ExprPrintE @1116 DATA
    _ZTIN5creek9ExprThrowE @1117 DATA
    _ZTIN5creek9ExprUnaryILNS_6OpCodeE22EXadL_ZNS_4Data3unmERKNS_13SharedPointerINS_5ScopeEEEEEEE @1118 DATA
    _ZTIN5creek9ExprUnaryILNS_6OpCodeE26EXadL_ZNS_4Data7bit_notERKNS_13SharedPointerINS_5ScopeEEEEEEE @1119 DATA
    _ZTIN5creek9ExprWhileE @1120 DATA
    _ZTIN5creek9UndefinedE @1121 DATA
    _ZTVN5creek10ConstScopeE @1122 DATA
    _ZTVN5creek10ExprBinaryILNS_6OpCodeE16EXadL_ZNS_4Data3addERKNS_13SharedPointerINS_5ScopeEEEPS2_EEEE @1123 DATA
    _ZTVN5creek10ExprBinaryILNS_6OpCodeE17EXadL_ZNS_4Data3subERKNS_13SharedPointerINS_5ScopeEEEPS2_EEEE @1124 DATA
    _ZTVN5creek10ExprBinaryILNS_6OpCodeE18EXadL_ZNS_4Data3mulERKNS_13SharedPointerINS_5ScopeEEEPS2_EEEE @1125 DATA
    _ZTVN5creek10ExprBinaryILNS_6OpCodeE19EXadL_ZNS_4Data3divERKNS_13SharedPointerINS_5ScopeEEEPS2_EEEE @1126 DATA
    _ZTVN5creek10ExprBinaryILNS_6OpCodeE20EXadL_ZNS_4Data3modERKNS_13SharedPointerINS_5ScopeEEEPS2_EEEE @1127 DATA
    _ZTVN5creek10ExprBinaryILNS_6OpCodeE21EXadL_ZNS_4Data3expERKNS_13SharedPointerINS_5ScopeEEEPS2_EEEE @1128 DATA
    _ZTVN5creek10ExprBinaryILNS_6OpCodeE23EXadL_ZNS_4Data7bit_andERKNS_13SharedPointerINS_5ScopeEEEPS2_EEEE @1129 DATA
    _ZTVN5creek10ExprBinaryILNS_6OpCodeE24EXadL_ZNS_4Data6bit_orERKNS_13SharedPointerINS_5ScopeEEEPS2_EEEE @1130 DATA
    _ZTVN5creek10ExprBinaryILNS_6OpCodeE25EXadL_ZNS_4Data7bit_xorERKNS_13SharedPointerINS_5ScopeEEEPS2_EEEE @1131 DATA
    _ZTVN5creek10ExprBinaryILNS_6OpCodeE27EXadL_ZNS_4Data14bit_left_shiftERKNS_13SharedPointerINS_5ScopeEEEPS2_EEEE @1132 DATA
    _ZTVN5creek10ExprBinaryILNS_6OpCodeE28EXadL_ZNS_4Data15bit_right_shiftERKNS_13SharedPointerINS_5ScopeEEEPS2_EEEE @1133 DATA
    _ZTVN5creek10ExprBoolOrE @1134 DATA
    _ZTVN5creek10ExprDynVarE @1135 DATA
    _ZTVN5creek10ExprModuleE @1136 DATA
    _ZTVN5creek10ExprNumberE @1137 DATA
    _ZTVN5creek10ExprReturnE @1138 DATA
    _ZTVN5creek10ExprStringE @1139 DATA
    _ZTVN5creek10ExprSwitchE @1140 DATA
    _ZTVN5creek10ExprVectorE @1141 DATA
    _ZTVN5creek10ExpressionE @1142 DATA
    _ZTVN5creek10IdentifierE @1143 DATA
    _ZTVN5creek10LexicErrorE @1144 DATA
    _ZTVN5creek10LocalScopeE @1145 DATA
    _ZTVN5creek11BadArgumentE @1146 DATA
    _ZTVN5creek11ExprAttrGetE @1147 DATA
    _ZTVN5creek11ExprAttrSetE @1148 DATA
    _ZTVN5creek11ExprBoolAndE @1149 DATA
    _ZTVN5creek11ExprBoolNotE @1150 DATA
    _ZTVN5creek11ExprBoolXorE @1151 DATA
    _ZTVN5creek11ExprBooleanE @1152 DATA
    _ZTVN5creek11ExprDynFuncE @1153 DATA
    _ZTVN5creek11GlobalScopeE @1154 DATA
    _ZTVN5creek11ObjectScopeE @1155 DATA
    _ZTVN5creek11SyntaxErrorE @1156 DATA
    _ZTVN5creek12DynCFunctionE @1157 DATA
    _ZTVN5creek12ExprDynClassE @1158 DATA
    _ZTVN5creek12ExprFunctionE @1159 DATA
    _ZTVN5creek12ExprIndexGetE @1160 DATA
    _ZTVN5creek12ExprIndexSetE @1161 DATA
    _ZTVN5creek12RuntimeErrorE @1162 DATA
    _ZTVN5creek13ExprLoadLocalE @1163 DATA
    _ZTVN5creek13UnexpectedEofE @1164 DATA
    _ZTVN5creek13UnimplementedE @1165 DATA
    _ZTVN5creek14AmbiguousTokenE @1166 DATA
    _ZTVN5creek14ExprBasicBlockE @1167 DATA
    _ZTVN5creek14ExprCallMethodE @1168 DATA
    _ZTVN5creek14ExprIdentifierE @1169 DATA
    _ZTVN5creek14ExprLoadGlobalE @1170 DATA
    _ZTVN5creek14ExprStoreLocalE @1171 DATA
    _ZTVN5creek14WrongArgNumberE @1172 DATA
    _ZTVN5creek15BadNumberFormatE @1173 DATA
    _ZTVN5creek15DynLibraryErrorE @1174 DATA
    _ZTVN5creek15ExprCreateLocalE @1175 DATA
    _ZTVN5creek15ExprStoreGlobalE @1176 DATA
    _ZTVN5creek15UnexpectedTokenE @1177 DATA
    _ZTVN5creek16ExprCreateGlobalE @1178 DATA
    _ZTVN5creek16ExprVariadicCallE @1179 DATA
    _ZTVN5creek17DynSymbolNotFoundE @1180 DATA
    _ZTVN5creek18BadCharacterEscapeE @1181 DATA
    _ZTVN5creek18GarbageCollectableE @1182 DATA
    _ZTVN5creek19UnexpectedCharacterE @1183 DATA
    _ZTVN5creek22ExprVariadicCallMethodE @1184 DATA
    _ZTVN5creek3MapE @1185 DATA
    _ZTVN5creek4DataE @1186 DATA
    _ZTVN5creek4NullE @1187 DATA
    _ZTVN5creek4VoidE @1188 DATA
    _ZTVN5creek5ScopeE @1189 DATA
    _ZTVN5creek6ExprDoE @1190 DATA
    _ZTVN5creek6ExprEQE @1191 DATA
    _ZTVN5creek6ExprGEE @1192 DATA
    _ZTVN5creek6ExprGTE @1193 DATA
    _ZTVN5creek6ExprIfE @1194 DATA
    _ZTVN5creek6ExprLEE @1195 DATA
    _ZTVN5creek6ExprLTE @1196 DATA
    _ZTVN5creek6ExprNEE @1197 DATA
    _ZTVN5creek6NumberE @1198 DATA
    _ZTVN5creek6ObjectE @1199 DATA
    _ZTVN5creek6SharedE @1200 DATA
    _ZTVN5creek6StringE @1201 DATA
    _ZTVN5creek6VectorE @1202 DATA
    _ZTVN5creek7BooleanE @1203 DATA
    _ZTVN5creek7ExprCmpE @1204 DATA
    _ZTVN5creek7ExprForE @1205 DATA
    _ZTVN5creek7ExprMapE @1206 DATA
    _ZTVN5creek7ExprTryE @1207 DATA
    _ZTVN5creek8ExprCallE @1208 DATA
    _ZTVN5creek8ExprLoopE @1209 DATA
    _ZTVN5creek8ExprNullE @1210 DATA
    _ZTVN5creek8ExprVoidE @1211 DATA
    _ZTVN5creek8FunctionE @1212 DATA
    _ZTVN5creek9CFunctionE @1213 DATA
    _ZTVN5creek9ExceptionE @1214 DATA
    _ZTVN5creek9ExprBreakE @1215 DATA
    _ZTVN5creek9ExprClassE @1216 DATA
    _ZTVN5creek9ExprConstE @1217 DATA
    _ZTVN5creek9ExprForInE @1218 DATA
    _ZTVN5creek9ExprPrintE @1219 DATA
    _ZTVN5creek9ExprThrowE @1220 DATA
    _ZTVN5creek9ExprUnaryILNS_6OpCodeE22EXadL_ZNS_4Data3unmERKNS_13SharedPointerINS_5ScopeEEEEEEE @1221 DATA
    _ZTVN5creek9ExprUnaryILNS_6OpCodeE26EXadL_ZNS_4Data7bit_notERKNS_13SharedPointerINS_5ScopeEEEEEEE @1222 DATA
    _ZTVN5creek9ExprWhileE @1223 DATA
    _ZTVN5creek9UndefinedE @1224 DATA
